(dp0
VStonestreet
p1
I0
sVChateau Tanunda
p2
I12
sVRigal
p3
I3
sVCarmelo Rodere
p4
I4
sVCave Des Producteurs De Vouvray
p5
I5
sVGarcia Carrion
p6
I6
sVRed Car
p7
I7
sVRoche
p8
I10
sVRaza
p9
I2764
sVMrva & Stanko
p10
I2057
sVPleasant Hill
p11
I13
sVAlconde
p12
I15
sVEtude
p13
I16
sVNepenthe
p14
I17
sVVallegre
p15
I18
sVDomaine Chandon Australia
p16
I576
sVKangaroo Ridge
p17
I2059
sVG7
p18
I21
sVQuinta Do Vale Meao
p19
I22
sVZonnebloem
p20
I114
sVGabriel Mefre
p21
I3690
sVPlata
p22
I24
sVVinalba
p23
I25
sVMonte Del Fra
p24
I26
sVTagaris
p25
I27
sVVavasour
p26
I28
sVAnne De Joyeuse
p27
I29
sVSt Jean
p28
I30
sVInaki Nunez
p29
I3722
sVKatnook Estate
p30
I31
sVBlason Timberlay
p31
I3884
sVClotilde Davenne
p32
I33
sVCimarosa
p33
I35
sVCorte Giara
p34
I3950
sVChateau Carignan
p35
I36
sVDe Muller
p36
I37
sVB Cellars
p37
I38
sVTamada
p38
I39
sVTatachilla
p39
I40
sVSchaeffer Woerly
p40
I1366
sVAncient Peaks
p41
I42
sVNapa valley
p42
I43
sVValli
p43
I44
sVMazzei
p44
I2268
sVBerticot
p45
I46
sVCitra
p46
I47
sVBanshee
p47
I48
sVCecchi
p48
I49
sVEberle
p49
I50
sVBella Vista
p50
I51
sVDomaine Dublere
p51
I52
sVRobert Klingenfus
p52
I53
sVChateau Lafite Rothschild
p53
I2063
sVBlandy's
p54
I277
sVAdobe Road
p55
I3971
sVOrigin
p56
I57
sVPrincipato
p57
I3506
sVLieblich
p58
I58
sVVinas Del Vero
p59
I60
sVBodegas Martin Codax
p60
I61
sVJean Marc Morey
p61
I62
sVAttems
p62
I63
sVMont Marcal
p63
I64
sVWittmann
p64
I65
sVStag's Hollow
p65
I2067
sVWeinbiet
p66
I67
sVBoeger
p67
I68
sVWirra Wirra
p68
I69
sVMargaux
p69
I70
sVEquipo Navazos
p70
I71
sVCompania Europea
p71
I3447
sVMarco Bonfante
p72
I73
sVLincourt
p73
I74
sVLeo Hillinger
p74
I75
sVDe Stefani
p75
I427
sVSchloss Lieser
p76
I77
sVPenny's Hill
p77
I78
sVCantina Cellaro
p78
I1373
sVVina Chocalan
p79
I80
sVPerlage
p80
I81
sVPalazzo
p81
I82
sVBoeckel
p82
I2106
sVConquista
p83
I84
sVDutschke
p84
I85
sVCantina Valtidone
p85
I3970
sVDomaine La Milliere
p86
I86
sVMont Redon
p87
I87
sVGianpiero Marrone
p88
I88
sVChateau Valandraud
p89
I89
sVMaycas Del Limari
p90
I90
sVHerzog
p91
I91
sVAlameda
p92
I2071
sVSaint Vincent
p93
I93
sVMetairie
p94
I94
sVLyrarakis
p95
I96
sVDon Sebastiani & Sons
p96
I97
sVCaldora
p97
I98
sVGiacomo Borgogno
p98
I2073
sVCavit
p99
I101
sVWoodbridge By Robert Mondavi
p100
I102
sVTaft Street
p101
I103
sVClearview Estate
p102
I104
sVStryker Sonoma
p103
I597
sVChateau Simone
p104
I106
sVBrown
p105
I2076
sVZD
p106
I108
sVMunoz
p107
I109
sVOgier
p108
I110
sVPiggs Peake
p109
I111
sVTrentham
p110
I112
sVWeingut Max Ferd. Richter
p111
I113
sVZantho
p112
I115
sVMonte Schiavo
p113
I116
sVGainey Vineyards
p114
I117
sVLouis Guntrum
p115
I118
sVKruger Rumpf
p116
I119
sVLes Cretes
p117
I120
sVSan Biagio
p118
I121
sVCave B
p119
I2641
sVBortolomiol
p120
I123
sVBrackenheim
p121
I124
sVDomaine Alfred
p122
I1381
sVEdmond Rentz
p123
I126
sVBodegas Etchart
p124
I127
sVFinca La Chamiza
p125
I128
sVAlbert Heijn
p126
I129
sVLa Motte
p127
I130
sVAndre
p128
I131
sVHedges Family Estate
p129
I132
sVJean Louis Denois
p130
I133
sVBarbadillo
p131
I56
sVColterenzio
p132
I135
sVRaoul Clerget
p133
I136
sVMoon Mountain
p134
I137
sVFairview Cellars
p135
I2175
sVCurtis
p136
I3073
sVKarl H. Johner
p137
I139
sVAvgvstvs
p138
I140
sVChateau d Yquem
p139
I2925
sVTokara
p140
I144
sVDe Lorimier
p141
I145
sVFrancis Ford Coppola
p142
I3898
sVDelheim
p143
I146
sVStratus
p144
I148
sVMartin Pomfy
p145
I149
sVDessilani
p146
I150
sVHartley Ostini Hitching Post
p147
I151
sVMorgan
p148
I4110
sVCaves Velhas
p149
I153
sVBattenfeld Spanier
p150
I154
sVEstablecimiento Juanico
p151
I155
sVSan Donaci
p152
I156
sVMalvira
p153
I157
sVCleto Chiarli
p154
I158
sVTaurino
p155
I159
sVGrape Creek
p156
I3625
sVAsara Estate
p157
I160
sVFranz Keller
p158
I3717
sVBellini
p159
I161
sVRicchi
p160
I2787
sVPinot noir
p161
I876
sVGunderloch
p162
I164
sVNitida
p163
I3461
sVE. J. Gallo 
p164
I165
sVBorgo Di Colloredo
p165
I1756
sVChateau Martin
p166
I166
sVAndre Delorme
p167
I167
sVCalvet
p168
I168
sVChateau Ducru Beaucaillou
p169
I169
sVYarden
p170
I171
sVBovin
p171
I3480
sVMaison Champy
p172
I172
sVRopiteau
p173
I173
sVCairanne
p174
I174
sVCasa Bianchi
p175
I2090
sVDomaine Zind Humbrecht
p176
I176
sVTopel
p177
I177
sVFreixenet
p178
I178
sVKurtatsch Cortaccia
p179
I180
sVCeci
p180
I1030
sVConcannon Vineyard
p181
I539
sVSalomon
p182
I184
sVGapsted
p183
I185
sVChampagne Ruinart
p184
I186
sVEdgefield
p185
I187
sVSonoma Cutrer
p186
I188
sVSee Ya Later Ranch
p187
I2347
sVDomaine de Montille
p188
I190
sVSteele
p189
I192
sVKarl Pfaffmann
p190
I193
sVMittnacht Klack
p191
I194
sVCantina Di Custoza
p192
I3776
sVLuna
p193
I195
sVOak Ridge
p194
I196
sVIlocki Podrumi
p195
I197
sVLa Riojana
p196
I198
sVPedroncelli
p197
I199
sVJaillance
p198
I3939
sVSchlossgut Diel
p199
I201
sVChateau Beaumont
p200
I3470
sVIrony
p201
I204
sVVina Bisquertt
p202
I1182
sVLa Frenz
p203
I3754
sVCave De Rasteau
p204
I206
sVDomaine Coche Dury
p205
I207
sVChateau Margaux
p206
I2146
sVSunset Hills
p207
I210
sVBabich
p208
I211
sVJarvis
p209
I212
sVLoxton
p210
I213
sVTurley
p211
I214
sVJean Luc Joillot
p212
I215
sVAriola
p213
I217
sVVeuve Cliequot
p214
I1283
sVMc William's
p215
I219
sVRene Bouvier
p216
I2099
sVHuarpe
p217
I221
sVJordan
p218
I222
sVLouis Tete
p219
I223
sVMiranda
p220
I224
sVWilhelm Walch
p221
I225
sVKaz
p222
I226
sVChilensis
p223
I227
sVCave De Vire
p224
I228
sVAnnaberta
p225
I229
sVBoyar
p226
I230
sVStefano Accordini
p227
I231
sVSpinelli
p228
I232
sVFoucher Lebrun
p229
I233
sVCalatrasi
p230
I234
sVBachelet
p231
I235
sVBunnell
p232
I236
sVDurius
p233
I237
sVAlpha Omega
p234
I238
sVChateau Fourcas Dupre
p235
I239
sVGeorges Vigouroux
p236
I240
sVGrand Sud
p237
I3055
sVBostavan
p238
I241
sVSainte Croix
p239
I242
sVRoberto Voerzio
p240
I243
sVNegrar
p241
I244
sVFrench Connection
p242
I245
sVAlba
p243
I4119
sVFriulvini
p244
I246
sVBischofliche Weinguter Trier
p245
I247
sVJakob Jung
p246
I248
sVCuvaison
p247
I249
sVJ. Portugal Ramos
p248
I250
sVTulloch
p249
I3878
sVFrei Brothers
p250
I251
sVAmphora
p251
I2801
sVMoet & Chandon
p252
I252
sVSculpterra
p253
I253
sVNeirano
p254
I141
sVChateau Belle Vue
p255
I1542
sVLes Jamelles
p256
I256
sVDeetlefs
p257
I3622
sVMiglianico
p258
I2108
sVGiesen
p259
I258
sVGramona
p260
I259
sVSan Marco
p261
I260
sVBlackstone
p262
I261
sVBerberana
p263
I262
sVCanneto
p264
I2803
sVShumi
p265
I264
sVKaesler
p266
I265
sVWillm
p267
I266
sVScheid
p268
I2661
sVCasale del Giglio
p269
I267
sVDomaine Conte
p270
I2109
sVMaison Joseph Drouhin
p271
I3599
sVRobertson
p272
I270
sVCantine Lenotti
p273
I2872
sVGrupo Traversa
p274
I2421
sVG. H. Mumm & Cie
p275
I271
sVRicossa
p276
I272
sVPannon
p277
I273
sVCinco Sentidos
p278
I274
sVFamille Castel
p279
I275
sVCarpe Diem
p280
I276
sVChateau Bouscasse
p281
I55
sVCollegium Vinitorum
p282
I1408
sVAmpelos
p283
I279
sVBadia A Coltibuono
p284
I280
sVKereskedohaz RT
p285
I281
sVBott Geyl
p286
I282
sVCharles Ellner
p287
I283
sVKettmeir
p288
I284
sVTinazzi
p289
I285
sVFish Eye
p290
I286
sVAnthonij Rupert
p291
I287
sVCave Spring Cellars
p292
I1410
sVCramele Recas
p293
I289
sVAresti
p294
I291
sVRemhoogte
p295
I292
sVAgriverde
p296
I293
sVVidal
p297
I294
sVSalvador Poveda
p298
I295
sVJean Leon
p299
I3116
sVDeakin Estate
p300
I296
sVCapezzana
p301
I297
sVMailly
p302
I298
sVSojourn
p303
I299
sVKalleske
p304
I2807
sVDrostdy Hof
p305
I2712
sVComte Von Neipperg
p306
I2113
sVBellevue Figeac
p307
I302
sVCompanhia Das Lezirias
p308
I2808
sVChateau Matras
p309
I306
sVThierry and Guy
p310
I307
sVGray Monk Estate Winery
p311
I308
sVInkerman
p312
I309
sVCasa Girelli
p313
I310
sVMoravino
p314
I311
sVSanta Helena
p315
I1849
sVLaetitia
p316
I313
sVDomaine Des Beaumont
p317
I314
sVAlde Gott
p318
I2327
sVKilikanoon
p319
I315
sVDante Rivetti
p320
I2117
sVPerico
p321
I317
sVTorre Oria
p322
I318
sVMartin Zahn
p323
I320
sVHenri De Villamont
p324
I321
sVPrunotto
p325
I322
sVKuleto Estate
p326
I323
sVRiunite
p327
I325
sVChateau Reynella
p328
I326
sVFoley Estates Vineyard
p329
I741
sVVenge
p330
I328
sVMi Terruno
p331
I329
sVMichel Lynch
p332
I330
sVCroft
p333
I331
sVExpert Club
p334
I332
sVMidnight
p335
I2120
sVNgatarawa
p336
I334
sVMoulin
p337
I335
sVMedlock Ames
p338
I2814
sVPaula Laureano
p339
I337
sVDomaine A. F. Gros
p340
I338
sVVietti
p341
I340
sVTenuta S. Anna
p342
I341
sVBalduzzi
p343
I2815
sVDr. H. Thanisch
p344
I343
sVPaladin
p345
I344
sVGini
p346
I345
sVElla Valley Vineyards
p347
I346
sVEcco Domani
p348
I3126
sVHuber
p349
I347
sVLes Vigneros
p350
I348
sVPetersons
p351
I349
sVHillebrand
p352
I350
sVPaolo Leo
p353
I351
sVChapelle
p354
I352
sVChampagne Jacquart
p355
I1421
sVDalla Valle Vineyards
p356
I354
sVGrant Burge
p357
I355
sVDucourt
p358
I2126
sVYellow Tail
p359
I2145
sVSeresin
p360
I358
sVRed Hill Estate
p361
I359
sVCantina Lenotti
p362
I360
sVLuzon
p363
I2128
sVCalera
p364
I362
sVWitch Creek
p365
I1422
sVFolonari
p366
I418
sVSaint Roch
p367
I365
sVQuinta Do Portal
p368
I366
sVBerthet Rayne
p369
I367
sVScott Harvey
p370
I368
sVCanard Duchene
p371
I369
sVChateau Fuisse
p372
I370
sVVinsmoselle
p373
I371
sVChateau Aney
p374
I372
sVVilla Sandi
p375
I373
sVLuis Duarte
p376
I374
sVBaloun
p377
I375
sVReif Estate
p378
I2248
sVAndeol Salavert
p379
I378
sVKumala
p380
I1459
sVBeaulieu
p381
I380
sVDomaine Lafage
p382
I381
sVBastianich
p383
I382
sVVilla Giradi
p384
I383
sVJean Luc Aegerter
p385
I384
sVMallard Gaulin
p386
I385
sVVeranda
p387
I386
sVDuckhorn Vineyards
p388
I388
sVReininger Winery
p389
I1423
sVParadis
p390
I390
sVPierre Boniface
p391
I391
sVBelasco de Baquedano
p392
I3503
sVCellers Unio
p393
I394
sVHacienda Del Plata
p394
I395
sVDisznoko
p395
I1243
sVBuglioni
p396
I397
sVChrysalis Vineyards
p397
I398
sVRiebeek
p398
I399
sVArnaud Ente
p399
I3809
sVChateau Le Prieure
p400
I400
sVBaron De Ley
p401
I401
sVChristian Moneix
p402
I402
sVLuna Di Luna
p403
I403
sVMontaribaldi
p404
I404
sVPost House
p405
I1426
sVDomaines Ott
p406
I2828
sVDeerfield
p407
I407
sVSwartland
p408
I408
sVAffentaler
p409
I409
sVRuffino
p410
I410
sVChateau Pontac Lynch
p411
I3645
sVKim Grawford
p412
I2939
sVEstezargues
p413
I412
sVJean Philippe
p414
I2198
sVMission Hill
p415
I414
sVBeckmen Vineyards
p416
I415
sVCollalto
p417
I416
sVArzuaga
p418
I3510
sVMontefiore
p419
I3498
sVJean Claude Boisset
p420
I3380
sVKsara
p421
I419
sVVerduguez
p422
I420
sVMarkham
p423
I421
sVColli Euganei
p424
I422
sVChateau Cos d'Estournel
p425
I423
sVCougar Crest
p426
I424
sVDominique Piron
p427
I425
sVCorte Viola
p428
I426
sVRiondo
p429
I3188
sVCalyptra
p430
I428
sVSanta Ines
p431
I2134
sVAnecoop
p432
I431
sVMichel Stephane Ogier
p433
I432
sVRucahue
p434
I433
sVHenry Bourgeois
p435
I434
sVVulture
p436
I3014
sVDomaine de la Vougeraie
p437
I435
sVIn Situ
p438
I436
sVGermano Ettore
p439
I437
sVCasteggio
p440
I438
sVBodega Catena Zapata
p441
I439
sVCastello Del Pggio
p442
I440
sVChateau Guiraud
p443
I441
sVRosemount Estate
p444
I442
sVJean Baptiste Bejot
p445
I443
sVLaudun Chusclan
p446
I1130
sVZahel
p447
I447
sVEspiritu De Chile
p448
I449
sVChateau Coubet
p449
I451
sVAntonelli
p450
I452
sVCascin Adelaide
p451
I453
sVLouis Chavy
p452
I454
sVKonzelmann
p453
I1434
sVFlagstone
p454
I2838
sVRietburg
p455
I457
sVCordier
p456
I458
sVEnrico Serafino
p457
I459
sVOrnella Molon
p458
I460
sVLuce Della Vite
p459
I2141
sVTolosa
p460
I83
sVPrincipe de Viana
p461
I2142
sVMaestro
p462
I464
sVMillet
p463
I2841
sVCasabianca
p464
I466
sVPepperwood Grove
p465
I467
sVObrist Vevey
p466
I468
sVChateau Doisy Daene
p467
I469
sVBoscato
p468
I3587
sVBoutari
p469
I471
sVCastelmaure
p470
I472
sVLa Playa
p471
I473
sVCavallotto
p472
I474
sVEstrella
p473
I475
sVPlacido
p474
I476
sVAlvaro Castro
p475
I477
sVVarvaglione Vigne & Vini
p476
I19
sVGruet
p477
I2144
sVArauco
p478
I480
sVDrouhin Laroze
p479
I481
sVBaron Balche
p480
I482
sVChateau La Lagune
p481
I483
sVWeinert
p482
I3806
sVJidvei
p483
I484
sVKessler Zink
p484
I485
sVScagliola
p485
I486
sVLuigi Bosca
p486
I3044
sVRavenswood
p487
I2955
sVDenis Dubourdieu
p488
I489
sVBenjamin Leroux
p489
I490
sVFinca Flichman
p490
I492
sVButtonwood Farm
p491
I493
sVKlein Constantia
p492
I494
sVChampagne Gosset
p493
I495
sVPeter Zemmer
p494
I496
sVMarche Aux Vins
p495
I497
sVBlasons De Bourgogne
p496
I1441
sVMount Eden Vineyards
p497
I499
sVSavannah Chanelle
p498
I501
sVRousset
p499
I502
sVBodega Santa Julia
p500
I503
sVLeonard Kreusch
p501
I504
sVLorgeril
p502
I505
sVCorte Alla Flora
p503
I506
sVArmida
p504
I508
sVVrede En Lust
p505
I509
sVMiles
p506
I1444
sVVina Aquitania
p507
I511
sVLes Gravieres
p508
I512
sVCa De Medici
p509
I513
sVLambert Bridge
p510
I514
sVSanta Rita
p511
I515
sVLouis Sipp
p512
I516
sVBodega Colome
p513
I3436
sVDomaine de Gournier
p514
I517
sVKoenig
p515
I518
sVChateau d'Arsac
p516
I519
sVAriano Hermanos
p517
I520
sVTerra Vega
p518
I521
sVBodega Cosecheros y Criadores
p519
I522
sVTre Monti
p520
I523
sVWeingut Dr. Heger
p521
I3524
sVTreasure Hunter
p522
I525
sVMartinelli
p523
I527
sVEcologica
p524
I528
sVVina La Rosa
p525
I529
sVMission Estate Winery
p526
I530
sVEcheverria
p527
I3192
sVPolgar
p528
I3820
sVFerngrove
p529
I533
sVJuliusspital
p530
I534
sVAmani
p531
I535
sVSantiago
p532
I536
sVLa Terre
p533
I537
sVKeith Tulloch
p534
I538
sVDomaine Nicolas Rossignol
p535
I540
sVJoffre E Hijas
p536
I541
sVDonnafugata
p537
I542
sVTerra Valentine
p538
I543
sVFrey
p539
I545
sVBodegas Altanza
p540
I546
sVKunde Estate
p541
I547
sVStromberg
p542
I548
sVMezzacorona
p543
I549
sVFelsengartenkellerei Besigheim
p544
I550
sVSant Evasio
p545
I3526
sVVina Alicia
p546
I552
sVJoh. Jos. Prum
p547
I1282
sVVina Siegel
p548
I554
sVChateau Croizet Bages
p549
I2158
sVBodega Casa Montes
p550
I557
sVAdler Fels
p551
I558
sVJoseph Janoueix
p552
I3584
sVLe Contesse
p553
I559
sVWakefield
p554
I3331
sVChanson Pere Fils
p555
I3336
sVCovinas
p556
I562
sVRudi Pichler
p557
I563
sVLafond
p558
I564
sVBodega Goulart
p559
I565
sVX
p560
I566
sVChateau La Nerthe
p561
I567
sVDomaine Debray
p562
I568
sVVesztergombi
p563
I569
sVBeaulieu Vineyard
p564
I894
sVPlantagenet
p565
I1456
sVFrancois Labet
p566
I572
sVStoneleigh
p567
I573
sVGiacomo Conterno
p568
I574
sVEsmeralda
p569
I3416
sVFortnum Mason
p570
I577
sVDomaine de Trevallon
p571
I578
sVTsantali
p572
I579
sVAnselmo Mendes
p573
I3843
sVMilestii Mici
p574
I581
sVChampagne Taittinger
p575
I582
sVSanta Margherita
p576
I8
sVSpy Valley
p577
I584
sVCave De Saumur
p578
I585
sVMitchelton
p579
I586
sVMauleon
p580
I587
sVHeidsieck & Co
p581
I2162
sVWelmoed
p582
I589
sVBelle
p583
I590
sVThomas Morey
p584
I2940
sVBruno Rocca
p585
I591
sVBella
p586
I592
sVCeller Pinol
p587
I1460
sVMapuche
p588
I594
sVErnesto Catens
p589
I595
sVKokomo
p590
I170
sVAlta Vista
p591
I3537
sVCesari
p592
I598
sVGrafe lecocq
p593
I599
sVVinicola
p594
I600
sVHarveys
p595
I601
sVDomaine Bott Geyl
p596
I602
sVHeredad De Baroja
p597
I603
sVSaint Clair
p598
I604
sVRomariz
p599
I605
sVMaipo
p600
I606
sVReal Sitio De Ventosilla
p601
I607
sVSzepsy
p602
I1463
sVNicosia
p603
I609
sVJermann
p604
I610
sVDe Luze
p605
I611
sVPenalba Lopez
p606
I613
sVUrmeneta
p607
I614
sVCastello Della Paneretta
p608
I1464
sVFriedrich Becker
p609
I616
sVDulong
p610
I2864
sVPaul Cluver
p611
I617
sVJacob's Creek
p612
I618
sVJacques Charlet
p613
I619
sVDomaine Robert Chevillon
p614
I620
sVWinzergenossenschaft Mayschoss Altenahr
p615
I621
sVBaron de Hoen
p616
I3539
sVDomaine du Tariquet
p617
I623
sVMeerea Park
p618
I624
sVAntonio Camillo
p619
I625
sVVelenosi
p620
I626
sVPeterson
p621
I1467
sVHediard
p622
I628
sVDomaine Josmeyer
p623
I629
sVSanjo
p624
I630
sVBecker Steinhauer
p625
I631
sVEstampa
p626
I633
sVMandraRossa
p627
I2981
sVChildress Vineyards
p628
I634
sVBrechet
p629
I635
sVDouglas Green
p630
I636
sVCloudy Bay
p631
I637
sVRenwood
p632
I638
sVMerryvale Vineyards
p633
I639
sVSkovin
p634
I640
sVWeingut Angerhof Tschida
p635
I641
sVBarone Pizzini
p636
I642
sVSorelli
p637
I3208
sVLucas Vineyards
p638
I643
sVLeeuwin Estate
p639
I644
sVMaurel Vedeau
p640
I645
sVTenuta Sant Antonio
p641
I2165
sVSaint Laurent
p642
I648
sVDomaine Larue
p643
I649
sVTasca d'Almerita
p644
I650
sVDomaine des Muses
p645
I651
sVAngelo Rocca
p646
I4013
sVLava Vine
p647
I652
sVShafer Vineyards
p648
I3543
sVEikendal
p649
I655
sVKenneth Volk Vinyards
p650
I656
sVRuggeri
p651
I657
sVCielo
p652
I3544
sVHatzimichalis
p653
I1097
sVMildara
p654
I659
sVScrimaglio
p655
I660
sVMulderbosch
p656
I661
sVChateau Potensac
p657
I662
sVSao Miguel
p658
I2176
sVAlvaro Palacios
p659
I664
sVLes Crus Prevendus
p660
I665
sVTommasi
p661
I666
sVCampolargo
p662
I667
sVBodegas Sobreno
p663
I668
sVCossart Gordon
p664
I3760
sVTacama
p665
I669
sVValduero
p666
I670
sVD Oliveiras
p667
I2870
sVLodali
p668
I2177
sVCuriades
p669
I672
sVMarie Andre
p670
I673
sVChateau Suduiraut
p671
I674
sVCantina di Soave
p672
I676
sVColonnara
p673
I677
sVGrati
p674
I2876
sVFlowers
p675
I679
sVDuMOL
p676
I680
sVChateau d'Esclans
p677
I681
sVZerba Cellars
p678
I682
sVJean Bousquet
p679
I2082
sVDomaine La Soumade
p680
I684
sVCair
p681
I685
sVCecilia Beretto
p682
I686
sVMichlovsky
p683
I687
sVChateau Faugeres
p684
I3675
sVMuller Catoir
p685
I2754
sVContri
p686
I3191
sVSt. Clement
p687
I2878
sV7 Cascine
p688
I689
sVSt Andrea
p689
I690
sVTilia
p690
I691
sVTelmo Rodriguez
p691
I4135
sVStuart
p692
I693
sVChateau Rauzan Gassies
p693
I695
sVMarkowitsch
p694
I696
sVMauro Sebaste
p695
I697
sVSelaks
p696
I698
sVChateau Haut Brion
p697
I699
sVGouguenheim
p698
I700
sVCambria Estate
p699
I703
sVDominio de Pingus
p700
I706
sVSenario de Los Llanos
p701
I707
sVEndrizzi
p702
I708
sVThe Naked Grape
p703
I709
sVRobert Renzoni
p704
I710
sVCa'Del Bosco
p705
I711
sVSaint Ronain
p706
I712
sVMarie Louise Parisot
p707
I713
sVChateau L'Ermitage
p708
I714
sVPikes
p709
I715
sVBreaux
p710
I531
sVValfieri
p711
I717
sVMas Neuf
p712
I718
sVPotel Aviron
p713
I719
sVTitus
p714
I2301
sVMichel Schlumberger
p715
I721
sVPedro Domecq
p716
I182
sVRheinberg Kellerei
p717
I723
sVJosef Jamek
p718
I724
sVLe Chiantigiane
p719
I725
sVMarquis Philips
p720
I3557
sVVinium
p721
I727
sVAllendorf
p722
I728
sVGlenora Cellars
p723
I729
sVChateau Malescot St Exupery
p724
I730
sVMaddalena
p725
I732
sVGeografico
p726
I733
sVBodgea Ruca Malen
p727
I263
sVHonore Lavigne
p728
I1488
sVAndrian
p729
I736
sVFairview
p730
I737
sVShingleback
p731
I738
sVFederico Paternina
p732
I739
sVGraham Beck
p733
I740
sVChateau Beausejour
p734
I163
sVDomaine Harmand Geoffroy
p735
I2889
sVStellenrust
p736
I743
sVOsborne
p737
I3640
sVGrandes
p738
I744
sVVallebelbo
p739
I745
sVLe Vieux Pin
p740
I746
sVMorris
p741
I747
sVFratelli Perata
p742
I748
sVSanta Marta
p743
I749
sVW & J Grahams
p744
I750
sVUnti
p745
I3176
sVLauffener
p746
I2892
sVBeaurenard
p747
I752
sVChamarre
p748
I753
sVRobert Girard
p749
I754
sVAnne Gros
p750
I1493
sVValpantena
p751
I756
sVLos Cerros De San Juan
p752
I757
sVNorthstar
p753
I2192
sVLis Neris
p754
I759
sVMasottina
p755
I760
sVKellerei Terlan
p756
I761
sVTrambusti
p757
I762
sVOkonomierat Rebholz
p758
I763
sVThe Colonial Estate
p759
I764
sVA Mano
p760
I765
sVPalliser Estate
p761
I478
sVChateau Monbousquet
p762
I767
sVBodega Tamari
p763
I768
sVChampagne Deutz
p764
I769
sVBeato Bartolomeo
p765
I770
sVMilbrandt
p766
I771
sVMiguel Torres Chile
p767
I772
sVBodega Norton
p768
I1474
sVManincor
p769
I3592
sVQupe
p770
I774
sVPeter Michael
p771
I775
sVFelton Road
p772
I776
sVVidigal
p773
I3349
sVSampietrana
p774
I780
sVHapps
p775
I781
sVLouis Satour
p776
I782
sVSelbach Oster
p777
I783
sVHans Herzog
p778
I784
sVDievole
p779
I785
sVFeudo Di Santa Croce
p780
I786
sVTorres
p781
I788
sVPunti Ferrer
p782
I789
sVSan Vicente
p783
I790
sVFritsch
p784
I791
sVSmasne
p785
I792
sVLava Cap
p786
I793
sVPietro Nera
p787
I795
sVTenute Rubino
p788
I796
sVWaimea
p789
I797
sVCasa Castillo
p790
I799
sVPoggi
p791
I800
sVRoger Belland
p792
I801
sVCasa Marin
p793
I802
sVMichel Rolland
p794
I803
sVCave de Gan
p795
I804
sVBarao De Vilar
p796
I704
sVPinhal Da Torre
p797
I806
sVFinca El Origen
p798
I807
sVFamilia Deicas
p799
I808
sVWarres
p800
I809
sVChateau Haut Bailly
p801
I810
sVBel Air
p802
I811
sVPierre Morey
p803
I2907
sVBarone Montalto
p804
I813
sVCapel Vale
p805
I1561
sVDomaine Leroy
p806
I798
sVSansovino
p807
I815
sVPinino
p808
I3961
sVSant Orsola
p809
I816
sVArrowleaf
p810
I817
sVHugel Fils
p811
I3571
sVCastle Rock
p812
I819
sVPizzini
p813
I2909
sVDufouleur Freres
p814
I821
sVSandalford
p815
I3266
sVDomaine Drouhin
p816
I822
sVCloof
p817
I823
sVVina Almaviva S.A.
p818
I824
sVAra
p819
I825
sVAurelia Visinescu
p820
I854
sVDomaine Armand Rousseau Pere et Fils
p821
I828
sVFlat Creek Estate
p822
I829
sVFeudo Arancio
p823
I830
sVCondesa De Leganza
p824
I1576
sVSanta Lucia
p825
I831
sVClos Mont Blanc
p826
I832
sVComte Armand
p827
I833
sVCantine San Silvestro
p828
I835
sVNemea
p829
I837
sVSpring Mountain Vineyard
p830
I838
sVAbbazia
p831
I839
sVLignier Michelot
p832
I840
sVChateau Montrose
p833
I841
sVChateau Ste. Michelle
p834
I842
sVLa Crema
p835
I965
sVCaviro
p836
I844
sVHentley Farm
p837
I4045
sVPares Balta
p838
I845
sVSaintsbury
p839
I846
sVSipp Mack
p840
I847
sVHermann J. Wiemer Vineyard
p841
I848
sVDutton Goldfield
p842
I849
sVQuara
p843
I850
sVGinglinger Fix
p844
I851
sVCrociani
p845
I852
sVGundlach Bunschu
p846
I1044
sVDuca Bortini Di Montebello
p847
I857
sVAckerman Remy Pannier
p848
I4129
sVPearmund
p849
I858
sVAlain Corcia
p850
I859
sVPaul Pernot Et Ses Fils
p851
I860
sVThe Ojai Vineyard
p852
I3578
sVBodegas Ramon Bilbao
p853
I862
sVVentisquero
p854
I863
sVFamilia Mayol
p855
I865
sVFranz Wilh. Langguth
p856
I3579
sVRemy Martin
p857
I867
sVASDA
p858
I868
sVGiuseppe Rinaldi
p859
I869
sVVinchio Vaglio Serra
p860
I870
sVJulian Reynolds
p861
I871
sVJackson Triggs
p862
I872
sVSan Telmo
p863
I873
sVChaberton
p864
I874
sVColumbia Winery
p865
I3348
sVRedwood Creek
p866
I1192
sVLacave
p867
I877
sVLourensford
p868
I878
sVTor Kenward Family
p869
I879
sVAmalia
p870
I1222
sVCamino Real
p871
I881
sVSoave
p872
I882
sVOrsat
p873
I883
sVGrande Maison
p874
I884
sVRietvallei
p875
I885
sVMargan
p876
I886
sVSchug
p877
I887
sVCameron
p878
I888
sVEmmanuel Rouget
p879
I889
sVGirolamo
p880
I2456
sVVincent Arroyo
p881
I892
sVPortal Del Alto
p882
I893
sVDomaine Vincent Girardin
p883
I3850
sVOliver Leflaive
p884
I895
sVCarlos Basso
p885
I3895
sVNewsome Harlow
p886
I896
sVNugan
p887
I897
sVDamilano
p888
I898
sVGutierrez De La Vega
p889
I899
sVTerra Nostra
p890
I900
sVCasa Bottega
p891
I901
sVSettesoli
p892
I1315
sVWagner Vineyards
p893
I903
sVChateau Morrisette
p894
I904
sVPierre Yves Colin Morey
p895
I905
sVMark West
p896
I907
sVAndre Goichot
p897
I908
sVRibeauville
p898
I909
sVDe La Montanya
p899
I910
sVHaut Rhin
p900
I911
sVGrupo Berceo Luis Gurpegui Muga
p901
I912
sVChateau Lestage
p902
I913
sVSeven Hills
p903
I914
sVMurray Street Vineyards
p904
I915
sVChateau Roland La Garde
p905
I916
sVCaballo De Oro
p906
I917
sVBodegas Enguera
p907
I918
sVFrancois Mikulski
p908
I919
sVVina Santa Ema
p909
I920
sVGiacosa Fratelli
p910
I1681
sVDomaine Fourrier
p911
I922
sVGloria Ferrer
p912
I923
sVBalbi Soprani
p913
I924
sVElena
p914
I925
sVRoyal Tokaji
p915
I926
sVChateau Valtice
p916
I927
sVSine Qua Non
p917
I928
sVBodegas Penalba Lopez
p918
I2931
sVAllegrini
p919
I2932
sVDamaine Serene
p920
I932
sVGrans Fassian
p921
I933
sVFall Creek Vineyards
p922
I934
sVSaladini Pilastri
p923
I935
sVTrenel Fils
p924
I936
sVAves Del Sur
p925
I937
sVBrown Brothers
p926
I938
sVWest Cape Howe
p927
I939
sVHorton Vineyards
p928
I940
sVNatale Verga
p929
I942
sVChateau Montelena
p930
I944
sVChateau de Seguin
p931
I945
sVVerga
p932
I734
sVLa Fortuna
p933
I946
sVTresch Clerget Sas
p934
I947
sVBounty Hunter
p935
I949
sVCoche Bizouard
p936
I1527
sVFerreira
p937
I951
sVFrogmore Creek
p938
I952
sVMuriel
p939
I1337
sVHenri Naudin Ferrand
p940
I954
sVMeinklang
p941
I955
sVSanta Alicia
p942
I956
sVHonig
p943
I957
sVRabbit Ridge
p944
I958
sVSt.Francis
p945
I2938
sVNieto Senetiner
p946
I961
sVEcocert
p947
I962
sVFranciscan
p948
I963
sVValentin Fleur
p949
I964
sVConte Ferdinando Guicciardini
p950
I966
sVJost
p951
I967
sVSaint Claire
p952
I968
sVEl Aromo
p953
I969
sVBon Courage
p954
I970
sVMillaman
p955
I971
sVKingston Estate
p956
I972
sVEola Hills
p957
I973
sVLong Shadows
p958
I975
sVReichgraf von Kesselstatt
p959
I976
sVBouchard Aine & Fils
p960
I977
sVVincent Sauvestre
p961
I978
sVAndre Clouet
p962
I979
sVMeyer Nakel
p963
I980
sVChateau La Grave
p964
I1666
sVMayo
p965
I983
sVMeyer Fonne
p966
I984
sVRocche Costamagna
p967
I985
sVMayu
p968
I986
sVBorell Diehl
p969
I987
sVLlano Estacado
p970
I988
sVBodegas Breton
p971
I3449
sVHaut Canteloup
p972
I989
sVInglenook
p973
I990
sVPurcari
p974
I991
sVPatrick Piuze
p975
I992
sVFrancois Martinot
p976
I993
sVBannockburn Vineyards
p977
I994
sVPrimaterra
p978
I995
sVDomaine Meo Camuzet
p979
I1889
sVAnakena
p980
I997
sVPeter lehmann
p981
I998
sVHuber Winery
p982
I1000
sVCalcareous Vineyard
p983
I1001
sVChateau Victoria
p984
I1002
sVKrohn
p985
I1003
sVPalo Alto
p986
I1004
sVWestend
p987
I23
sVChateau Kefraya
p988
I1006
sVOlivier Guyot
p989
I2947
sVBricco Maiolica
p990
I1008
sVAnura
p991
I4026
sVAckerman Family Vineyards
p992
I1011
sVKayra
p993
I1012
sVJaboulet Vercherre
p994
I1013
sVAnthony Road
p995
I1014
sVKloster Am Spitz
p996
I3610
sVKeller
p997
I1016
sVAntoniolo
p998
I1017
sVHazlitt 1852 Vineyards
p999
I1018
sVCollefrisio
p1000
I1019
sVBodegas Lan
p1001
I1020
sVAndrew Will
p1002
I1021
sVPierre Anadieu
p1003
I1022
sVGere Attila
p1004
I1023
sVMolly Dooker
p1005
I2951
sVBodegas Protos
p1006
I2242
sVBernard Massard
p1007
I1026
sVLavradores De Feitoria
p1008
I3613
sVSockeye
p1009
I1027
sVCasa Miriam
p1010
I3025
sVDeux Montille
p1011
I147
sVPierre Dupond
p1012
I1029
sVMaison Coquard
p1013
I181
sVGotham
p1014
I1031
sVChateau Laroque
p1015
I1032
sVBacksberg
p1016
I1033
sVMaculan
p1017
I1034
sVBrownstone
p1018
I1035
sVChateau Diana
p1019
I2990
sVGeil
p1020
I3056
sVWolfberger
p1021
I1036
sVSchloss Halbturn
p1022
I1037
sVParker Coonawarra Estate
p1023
I1038
sVSt. Urbans Hof
p1024
I1039
sVColumbia
p1025
I1040
sVBonny Doon Vineyard
p1026
I1041
sVMassimo Penna
p1027
I1042
sVTwo Hands
p1028
I1043
sVAugustin Florent
p1029
I853
sVPierre Bouree Fils
p1030
I1045
sVBonterra
p1031
I1046
sVDomaine Guyon
p1032
I1047
sVRed Diamond
p1033
I1048
sVDomaine Leflaive
p1034
I3618
sVFamille Perrin
p1035
I1050
sVOvera Negra
p1036
I1051
sVTerredavino
p1037
I1052
sVLacheteau
p1038
I1054
sVRolet
p1039
I1055
sVQuinta Do Castelinho
p1040
I4040
sVD'Arenberg
p1041
I1545
sVFougeray de Beauclair
p1042
I1056
sVPerry Creek
p1043
I1057
sVChateau de Campuget
p1044
I2469
sVPiere Ponnelle
p1045
I507
sVCoriole
p1046
I1059
sVBisol
p1047
I1060
sVVilla Fabrizia
p1048
I1061
sVGraffigna
p1049
I1062
sVInniskillin
p1050
I526
sVFranz Haas
p1051
I1064
sVBettini
p1052
I4118
sVChateau La Fleur
p1053
I2393
sVWeingut Egon Muller Scharzhof
p1054
I2252
sVRenzo Masi
p1055
I1067
sVDomaine Marius Delarche
p1056
I3621
sVMalesan
p1057
I1069
sVGulfi
p1058
I1070
sVLynfred
p1059
I1071
sVBressia
p1060
I1072
sVDomaine Saumaize Michelin
p1061
I1073
sVCastello D Albola
p1062
I4011
sVHandley Cellars
p1063
I1074
sVAlbino Armani
p1064
I3363
sVEugenio Collavini
p1065
I1075
sVRoquevale
p1066
I1076
sVPierre Laforest
p1067
I1077
sVSommerach
p1068
I1078
sVJaume Serra
p1069
I1079
sVGrasso Fratelli
p1070
I1080
sVD Irouleguy
p1071
I1081
sVSignorello Estate
p1072
I1082
sVHacienda Los Haroldos
p1073
I1083
sVHogue Cellars
p1074
I1084
sVCapannelle
p1075
I1085
sVLe Vigne
p1076
I1086
sVMiceli
p1077
I3535
sVForest Glen
p1078
I1087
sVOsprey's Dominion
p1079
I1089
sVWachtenburg
p1080
I1090
sVVicomte Bernard De Romanet
p1081
I1091
sVO.S
p1082
I1092
sVLittoral Mediterraneen
p1083
I1093
sVBethal Heights
p1084
I1094
sVCorte Figaretto
p1085
I1095
sVDragani
p1086
I3627
sVJean Stodden
p1087
I1098
sVHiedler
p1088
I1099
sVMarotti Campi
p1089
I3853
sVArthur Barolet &amp; Fils
p1090
I1102
sVHeredad Ugarte
p1091
I1103
sVTravaglini
p1092
I1104
sVBlack Star Farms
p1093
I1105
sVConcha y Toro
p1094
I189
sVSartori Di Verona
p1095
I1109
sVDomaine Gauby
p1096
I1110
sVPhilippe Colim
p1097
I1111
sVVina Tarapaca
p1098
I1112
sVFamilia Cassone
p1099
I1113
sVGrgich Hills Estate
p1100
I1114
sVCossetti
p1101
I1115
sVCarl Reh
p1102
I1116
sVRothbury Estate
p1103
I1117
sVNederburg
p1104
I1119
sVColdstream Hills
p1105
I1120
sVSchloss Johannisberg
p1106
I1121
sVM. Chapoutier
p1107
I1122
sVJhringer
p1108
I1123
sVCovey Run
p1109
I1970
sVNino Negri
p1110
I2970
sVVilla Vinea
p1111
I1126
sVCastello Di Meleto
p1112
I1127
sVPear Valley
p1113
I2971
sVBrigaldara
p1114
I1129
sVDominio de Punctum
p1115
I1131
sVClos Saint Jean
p1116
I1132
sVGeorg Muller Stiftung
p1117
I1133
sVPatriarche Pere et Fils
p1118
I1134
sVQuinta Do Vallado
p1119
I1135
sVPfeiffer
p1120
I1136
sVCasale
p1121
I1137
sVHeilbronn
p1122
I1138
sVMarks Spencer
p1123
I1139
sVCasa Vinicola Botter
p1124
I3058
sVMuratie Estate
p1125
I1140
sVCascina Garitina
p1126
I1141
sVRomerhof
p1127
I1142
sVBenegas
p1128
I1010
sVVina Leyda
p1129
I1144
sVFox Run Vineyards
p1130
I1145
sVUmberto Cesari
p1131
I1146
sVDominus Estate
p1132
I1147
sVDolium
p1133
I1148
sVLaurent Perrier
p1134
I1149
sVMerryvale
p1135
I3351
sVBestheim
p1136
I1150
sVRuca Malen
p1137
I491
sVFontezoppa
p1138
I1153
sVThornton
p1139
I1154
sVPaul Schneider
p1140
I2975
sVChateau Bellegrave
p1141
I1156
sVBelje
p1142
I1157
sVRickety Bridge
p1143
I1158
sVSwedish Hill
p1144
I2976
sVSchramsberg
p1145
I1160
sVSebastiani
p1146
I1161
sVChateau Maucaillou
p1147
I1162
sVDamianitza
p1148
I1163
sVFinca La Luz
p1149
I1164
sVLe Grand Noir
p1150
I1166
sVFabre Montmayour
p1151
I1168
sVWeinkellerei
p1152
I1169
sVValtice
p1153
I1170
sVBarton & Guestier
p1154
I981
sVSt. Clair Winery
p1155
I1172
sVTussock Jumper
p1156
I1173
sVParusso
p1157
I179
sVVal D Orbieu
p1158
I1175
sVSan Esteban
p1159
I1176
sVHanging Rock
p1160
I1177
sVGrafe Lecocq
p1161
I1178
sVMarziano Abbona
p1162
I1179
sVLa Belle
p1163
I1180
sVLibrandi
p1164
I379
sVNeil Ellis
p1165
I183
sVMarques De La Concordia
p1166
I3240
sVPhilippe Bouzereau
p1167
I1184
sVYazgan
p1168
I1185
sVMan O'War
p1169
I1186
sVGarci Grande
p1170
I2969
sVPellegrini
p1171
I1187
sVOrlando
p1172
I1188
sVPellegrino
p1173
I1189
sVLagarde
p1174
I1190
sVBott Freres
p1175
I1191
sVMontirius
p1176
I1193
sVBodegas Lopez Mercier
p1177
I1195
sVLandiras
p1178
I3528
sVSmoking Loon
p1179
I1197
sVUnivitis
p1180
I1198
sVDe Morgenzon
p1181
I1199
sVGreg Norman
p1182
I1200
sVReichsrat Von Buhl
p1183
I1201
sVAdega Luis Pato
p1184
I1202
sVFeudo Maccari
p1185
I2966
sVBodegas Fernando Castro
p1186
I1204
sVDows
p1187
I1205
sVSan Rafael
p1188
I1206
sVLa Bastide
p1189
I1207
sVBergsig Estate
p1190
I1208
sVFamiglia Meschini
p1191
I1209
sVRocbere
p1192
I1210
sVBotter
p1193
I1211
sVDomaine Sorin
p1194
I2276
sVValtravieso
p1195
I1213
sVDuchessa Lia
p1196
I3736
sVJoseph Castan
p1197
I1216
sVCesarini Sforza
p1198
I1217
sVJean Guillot
p1199
I1218
sVNamaqua
p1200
I1219
sVTurkey Flat Vineyards
p1201
I1220
sVAlaverdi
p1202
I1221
sVNervi
p1203
I880
sVPalacio Del Conde
p1204
I1223
sVCaymus Vineyards
p1205
I1224
sVZaca Mesa
p1206
I1225
sVCarpene Malvolti
p1207
I1226
sVGaetano d'Aquino
p1208
I1227
sVChateau Penin
p1209
I1228
sVMission Estate
p1210
I1568
sVPertinace
p1211
I1230
sVFirst Creek
p1212
I1231
sVLaibach
p1213
I1232
sVNoble
p1214
I1233
sVChateau Vieux Robin
p1215
I1234
sVClos du Val
p1216
I1235
sVBonacchi
p1217
I1236
sV\u6021\u56ed\u9152\u5e84
p1218
I1237
sVFantinel
p1219
I1239
sVCave Des Onze Communes
p1220
I1240
sVVinarska Oblast Morava
p1221
I1241
sVGutierrez Colosia
p1222
I1242
sVAngelo Delea
p1223
I2366
sVAscheri
p1224
I1244
sVDe Mour
p1225
I1245
sVGaia
p1226
I1246
sVViticcio
p1227
I1247
sVDeerfield Ranch
p1228
I1248
sVSaint Michel
p1229
I4089
sVLiberty School
p1230
I1249
sVQuilceda Creek
p1231
I1250
sVPiazzo
p1232
I1571
sVChateau Vignelaure
p1233
I1252
sVAudrey Wilkinson
p1234
I1253
sVMantellassi
p1235
I1254
sVFirestone Vineyard
p1236
I1255
sVChilcas
p1237
I1256
sVVina Maipo
p1238
I2247
sVSigalas
p1239
I1258
sVDuval Leroy
p1240
I1259
sVBernard Et Robert Schoffit
p1241
I1260
sVHeidi Schrck
p1242
I1261
sVPowers
p1243
I1262
sVHerdade Do Esporao
p1244
I1263
sVLa Spinetta
p1245
I1264
sVFalcor
p1246
I1265
sVContarini
p1247
I1266
sVDagernova
p1248
I1267
sVStella
p1249
I3531
sVEgly Ouriet
p1250
I1269
sVWilliam Fevre
p1251
I1270
sVMartinez Bujanda
p1252
I694
sVVoyager Estate
p1253
I1272
sVChateau De Puligny Montrachet
p1254
I2286
sVVve Fourny & Fils
p1255
I1274
sVToso
p1256
I1275
sVTalisman
p1257
I1276
sVDomaine Chantal Lescure
p1258
I1277
sVSan Giorgio
p1259
I1278
sVSuntory
p1260
I1279
sVRocche Dei Manzoni
p1261
I430
sVAgriloro
p1262
I1281
sVTenuta Ulisse
p1263
I218
sVWrath
p1264
I1284
sVVaucher Pere Et Fils
p1265
I1285
sVYalumba
p1266
I1286
sVPaololeo
p1267
I1287
sVBarmes Buecher
p1268
I1288
sVLouis Violland
p1269
I1289
sVFinca La Anita
p1270
I1292
sVSant Antonio
p1271
I1579
sVBaron
p1272
I2995
sVJosef Drathen
p1273
I1296
sVClos Malverne
p1274
I2810
sVLa Chablisienne
p1275
I1297
sVBuiteverwachting
p1276
I1298
sVPlaisir De Merle
p1277
I1299
sVBoplaas
p1278
I1300
sVChateau Genot Boulanger
p1279
I1301
sVLa Rioja Alta
p1280
I1302
sVDelas Freres
p1281
I1303
sVGovone
p1282
I1304
sVCullen
p1283
I1305
sVCa La Bionda
p1284
I1306
sVCristo De La Vega
p1285
I1307
sVCantina Santa Barbara
p1286
I1308
sVBecksteiner
p1287
I1309
sVMovino
p1288
I1310
sVChateau D'Issan
p1289
I1311
sVChateau Le Boscq
p1290
I1312
sVLyeth
p1291
I902
sVChateau Leoville Barton
p1292
I1316
sVWillamette Valley Vineyards
p1293
I1317
sVStark Conde
p1294
I1319
sVCordero di Montezemolo
p1295
I1320
sVTamborini Carlo Eredi
p1296
I3652
sVSpice Route
p1297
I1322
sVChateau Pichon Longueville Baron
p1298
I1323
sVFulkerson
p1299
I2999
sVJean Charlron
p1300
I1325
sVSirromet
p1301
I1326
sVCooper Vineyard
p1302
I1327
sVM.Chapoutier
p1303
I1328
sVCasa Lapostolle
p1304
I1329
sVNals Magreid
p1305
I1330
sVMerry Edwards
p1306
I1331
sVPlaneta
p1307
I3923
sVPocas
p1308
I1333
sVDomaine Tortochot
p1309
I1334
sVRobert Craig
p1310
I2300
sVArgyle
p1311
I1336
sVDue Palme
p1312
I1338
sVLindemans
p1313
I1339
sVClarendon Hills
p1314
I1340
sVZenato
p1315
I1341
sVTurnbull
p1316
I1342
sVBrezza
p1317
I1343
sVDomaine Ostertag
p1318
I3661
sVChateau Julien
p1319
I1345
sVBosca
p1320
I3002
sVBrokenwood
p1321
I1347
sVOberkircher Winzer
p1322
I1587
sVPepper Bridge
p1323
I1349
sVDans La Region De Production
p1324
I2304
sVWild Pig
p1325
I1350
sVLa Fenetre
p1326
I3008
sVBoscarelli
p1327
I1352
sVPeregrine
p1328
I1353
sVJean Babtiste Adam
p1329
I1354
sVSanta Sarah
p1330
I1589
sVFernand Cina
p1331
I1356
sVMont Tauch
p1332
I3696
sVBigi
p1333
I1357
sVMeridiana
p1334
I1359
sVBenjamin Darnault
p1335
I3448
sVTorciano
p1336
I1360
sVBodegas Nekeas
p1337
I1361
sVSaint Jean
p1338
I1370
sVJoseph Roty
p1339
I1363
sVBlue Nun
p1340
I1364
sVSilvan Ridge
p1341
I1365
sVProtos
p1342
I3669
sVAdet Seward
p1343
I41
sVVilleneuve
p1344
I2309
sVDomaine Alain Hudelot Noellat
p1345
I59
sVChateau Grand Traverse
p1346
I1371
sVVallontano
p1347
I1372
sVBaron Fuente
p1348
I79
sVDomane Muller
p1349
I1374
sVBird In Hand
p1350
I1375
sVSerafini & Vidotto
p1351
I1376
sVMacia Batle
p1352
I2311
sVIzadi
p1353
I1378
sVMastroberandino
p1354
I1379
sVToad Hollow
p1355
I1380
sVThe Sadie Family
p1356
I125
sVClub Des Sommeliers
p1357
I3274
sVRomate
p1358
I3450
sVPellar Estates
p1359
I142
sVChateau Haut Bages Liberal
p1360
I1385
sVSusana Balbo
p1361
I1386
sVAvignonesi
p1362
I1387
sVPhilippe Leclerc
p1363
I1388
sVJC Cellars
p1364
I1389
sVTraversa
p1365
I1390
sVDreissigacker
p1366
I1391
sVChateau Meyney
p1367
I1392
sVLionello Marchesi
p1368
I1393
sVLucas & Lewellen
p1369
I1394
sVKestrel
p1370
I216
sVAlbert Boxler
p1371
I1396
sVJean Jacques Confuron
p1372
I2937
sVAbadia Retuerta
p1373
I1397
sVPenner Ash
p1374
I1398
sVCedar Creek Estate
p1375
I1399
sVHuntington
p1376
I1400
sVAdelaida
p1377
I1401
sVLongview
p1378
I1402
sVPlantaze
p1379
I1403
sVSanford
p1380
I1404
sVHenri Fessy
p1381
I1405
sVMarc Bredif
p1382
I1406
sVOdfjell
p1383
I1407
sVSaltram
p1384
I278
sVSchild Estate
p1385
I1409
sVCantele
p1386
I288
sVMurrieta's Well
p1387
I1411
sVLe Ragose
p1388
I1412
sVVal Di Suga
p1389
I2357
sVLandskroon
p1390
I1413
sVChateau Brane Cantenac
p1391
I1414
sVNorte De Espana
p1392
I1415
sVPatricia Green Cellars
p1393
I1416
sVCarlo Zenegaglia
p1394
I1417
sVMaison Lou Dumont
p1395
I1418
sVNimbus Estate
p1396
I1419
sVBraida
p1397
I1108
sVLedson
p1398
I353
sVDarting
p1399
I363
sVChateau Soucherie
p1400
I389
sVDunham Cellars
p1401
I1424
sVChateau Camensac
p1402
I1425
sVDow
p1403
I2321
sVBeaumes De Venise
p1404
I405
sVSpalletti
p1405
I1427
sVGiacomo Borgogno & Figli
p1406
I3017
sVVina Falernia
p1407
I1429
sVChampagne Veuve Clicquot
p1408
I4067
sVDavid Coffaro
p1409
I1430
sVAgusti Torello Mata
p1410
I1431
sVMascarello Giuseppe E Figlio
p1411
I2405
sVChamonix
p1412
I1433
sVMarcarini
p1413
I891
sVGuy Mousset
p1414
I1435
sVChateau Lafon Rochet
p1415
I1437
sVSigne
p1416
I1438
sVSepp Moser
p1417
I1439
sVMarcato
p1418
I1440
sVBorba
p1419
I498
sVNaked
p1420
I1442
sVCellier Des Dauphins
p1421
I1443
sVBorgo Magredo
p1422
I510
sVAlma Negra
p1423
I3684
sVKurt Angerer
p1424
I1446
sVVeritas
p1425
I1447
sVBodega Estancia Mendoza
p1426
I1124
sVChateau Belgiave
p1427
I1449
sVSandeman
p1428
I556
sVJean Luc Baldes
p1429
I1451
sVLogodaj
p1430
I1452
sVColtiva
p1431
I3022
sVSchloss Vollrads
p1432
I1454
sVKloster Ebernach
p1433
I571
sVSiglo
p1434
I1604
sVPierre Chainiee
p1435
I1458
sVChiarli
p1436
I593
sVSaxenburg
p1437
I1461
sVMud House
p1438
I1462
sVChateau Haut Bergeron
p1439
I608
sVJean Marc Bernhard
p1440
I615
sVChateau de Parenchere
p1441
I1465
sVTrentadue
p1442
I1466
sVJoseph Phelps
p1443
I627
sVCaparzo
p1444
I1468
sVVinedos Marchigue
p1445
I1469
sVBodegas Lopez
p1446
I1470
sVPierre Chainier
p1447
I1471
sVCantina Kellerei Bozen
p1448
I1780
sVLidio Carraro
p1449
I1473
sVAndrew Murray Vineyards
p1450
I1475
sVZ Kobyli
p1451
I1476
sVBertoldi
p1452
I3026
sVBlack Swan
p1453
I1478
sVCharles Krug
p1454
I1479
sVHerdade da Malhadinha Nova
p1455
I1480
sVAlianca
p1456
I1481
sVFenestra
p1457
I1482
sVL'Aventure
p1458
I1483
sVCline
p1459
I1484
sVDI San Marzano
p1460
I720
sVPere Anselme
p1461
I1486
sVCarrau
p1462
I1487
sVHerdade Das Servas
p1463
I735
sVMoshin
p1464
I1489
sVVina Errazuriz
p1465
I1490
sVAntoine Moueix
p1466
I1344
sVChateau de la Riviere
p1467
I1492
sVFontana Candida
p1468
I755
sVO Brien Family
p1469
I1494
sVChateau Cos D'Estournel
p1470
I1495
sVFazio
p1471
I1496
sVChateau Lafleur
p1472
I3030
sVTabali
p1473
I777
sVJean Louis Chave
p1474
I1499
sVCorvus
p1475
I1500
sVVistalba
p1476
I1501
sVCastello Banfi
p1477
I1502
sVMarques De Reinosa
p1478
I1503
sVFelix Solis Avantis
p1479
I1504
sVHenri Giraud
p1480
I1506
sVBeyerscloof
p1481
I1507
sVHall
p1482
I1508
sVHugo Casanova
p1483
I1509
sVVilladoria
p1484
I1510
sVAlphonse Mellot
p1485
I1511
sVTerre Di Sava
p1486
I1512
sVCastello Monaci
p1487
I1513
sVBoschendal
p1488
I1515
sVJuanico
p1489
I2974
sVDomaine des Perdrix
p1490
I3804
sVVirgen Del Aguila
p1491
I1516
sVRomaneira
p1492
I1517
sVPasqua
p1493
I1194
sVChateau Bonnet
p1494
I1519
sVVillalta
p1495
I1520
sVPaul Zinck
p1496
I1521
sVFerrante
p1497
I999
sVBodegas Eguren
p1498
I3548
sVSeghesio Family Vineyards
p1499
I1523
sVRene Mure
p1500
I1525
sVNinety Plus
p1501
I1526
sVStephen & Walker
p1502
I2269
sVGuelbenzu
p1503
I950
sVRaymond
p1504
I2285
sVArrowood
p1505
I1528
sVKermit Lynch
p1506
I1529
sVCartuxa
p1507
I1530
sVMaroon
p1508
I1531
sVThelema Mountain
p1509
I1532
sVNorman Vineyards
p1510
I1533
sVPhilippe Bouchard
p1511
I3698
sVCasetta
p1512
I1535
sVSanta Luz
p1513
I1536
sVBodegas Valdemar
p1514
I4043
sVSan Gimignano
p1515
I1537
sVHeuchelberg
p1516
I1538
sVAntucura
p1517
I254
sVFalchini
p1518
I3699
sVTrefethen Family Vineyards
p1519
I1540
sVDoluca
p1520
I1541
sVCasas del Bosque
p1521
I1543
sVCa Di Rajo
p1522
I1544
sVBeni di Batasiolo
p1523
I1450
sVTrinity Hill
p1524
I1546
sVS. Osvaldo
p1525
I1547
sVMontvac
p1526
I1548
sVDelaire
p1527
I1549
sVJean Pierre Estager
p1528
I1550
sVValdubon
p1529
I1551
sVObikwa
p1530
I1553
sVCave De Beblenheim
p1531
I3604
sVPrince Michel
p1532
I1554
sVDom Teodosio
p1533
I2346
sVDomaine Bousquet
p1534
I1556
sVAstruc
p1535
I1291
sVMarques De Grinon
p1536
I1558
sVCampbells
p1537
I1559
sVJulio Bastos
p1538
I1560
sVGrand Cru
p1539
I1165
sVRemo Farina
p1540
I1562
sVAlbert Bichot
p1541
I1564
sVIsole E Olena
p1542
I3453
sVVallformosa
p1543
I1565
sVManara
p1544
I1566
sVMontevina
p1545
I1567
sVOkonomierat Johann Geil I. Erben
p1546
I1229
sVMoravino Valtice
p1547
I1569
sVSwanson Vineyards
p1548
I3783
sVSchmitt
p1549
I1251
sVChurch Road
p1550
I1572
sVMarco Luigi
p1551
I1238
sVSan Michele All Adige
p1552
I1574
sVSouthbrook
p1553
I2353
sVForgeron Cellars
p1554
I32
sVAlain Brumont
p1555
I1577
sVPiedemonte
p1556
I1578
sVBodega Lagarde
p1557
I1294
sVDomaine William Fevre
p1558
I1580
sVCouly Duheil
p1559
I1581
sVTinhorn Creek
p1560
I1582
sVDona Paula
p1561
I1583
sVFamiglia Marrone
p1562
I1585
sVMaison Nicolas
p1563
I3709
sVFanagoria
p1564
I1348
sVChampy
p1565
I1588
sVEmina
p1566
I1355
sVAntonin Rodet
p1567
I3171
sVAdobe Guadalupe
p1568
I1590
sVRooiberg
p1569
I2356
sVTeliani Valley
p1570
I3793
sVMassaya
p1571
I1592
sVCasa Larga
p1572
I1593
sVLa Torre
p1573
I1595
sVSan Juan
p1574
I1596
sVEdna Valley Vineyard
p1575
I1598
sVCastillo De Sajazarra
p1576
I1599
sVEMB
p1577
I1600
sVSbragia Family Vineyards
p1578
I1601
sVBret Brothers
p1579
I3045
sVCastello Di Borghese
p1580
I3236
sVMaison Ginestet
p1581
I1457
sVLarry Cherubino
p1582
I1605
sVHuber Verdereau
p1583
I1606
sVE. Guigal
p1584
I1607
sVSan Martin
p1585
I1608
sVCiacci Piccolomini d'Aragona
p1586
I1609
sVChateau Talbot
p1587
I1610
sVAlmaden
p1588
I1611
sVVeenwouden
p1589
I1612
sVTobin James
p1590
I1613
sVHusch Vineyards
p1591
I1524
sVSichel
p1592
I1616
sVVinarstvi Volarik
p1593
I3718
sVLynmar
p1594
I1619
sVPeter Lehmann
p1595
I1620
sVEmiliana
p1596
I1621
sVQuails' Gate
p1597
I1622
sVCascina Chicco
p1598
I1623
sVFranz Hirtzberger
p1599
I953
sVVina Haras De Pirque
p1600
I1625
sVVeuve Ambal
p1601
I1626
sVKellerei Bozen
p1602
I1627
sVNavarro Lopez
p1603
I1628
sVNicolas Feuillate
p1604
I1629
sVPichon Longueville
p1605
I1630
sVMeerlust Estate
p1606
I1631
sVAndretti
p1607
I1632
sVChateau Bel Air
p1608
I1633
sVFernando De Castilla
p1609
I1634
sVLa Rose Perriere
p1610
I1635
sVC.J. Pask
p1611
I1636
sVCliff Lede
p1612
I1637
sVZardetto
p1613
I1638
sVJean Michel Guillon
p1614
I1639
sVLa Fleur
p1615
I1640
sVSumac Ridge
p1616
I3991
sVBlue Mountain
p1617
I1642
sVHoward Park
p1618
I2367
sVChateau Pavie
p1619
I1644
sVWiens Family Cellars
p1620
I1645
sVDomaine Francois Lamarche
p1621
I105
sVGuerrieri Rizzardi
p1622
I1647
sVValcarlos
p1623
I1648
sVChateau Trocard
p1624
I1649
sVPaul Buisse
p1625
I1650
sVCasa Defra
p1626
I1651
sVBlack Oak
p1627
I3435
sVChateau Prieure Lichine
p1628
I1652
sVBatasiolo
p1629
I1720
sVArnaud De Villeneuve
p1630
I1654
sVDidier Dagueneau
p1631
I1655
sVRahm
p1632
I1656
sVJulien Meyer
p1633
I3054
sVTalenti
p1634
I2369
sVBottega
p1635
I1658
sVRauzan
p1636
I1659
sVCasa Valdulga
p1637
I1660
sVFar Niente
p1638
I1661
sVHospices De Nuits
p1639
I1662
sVBodega Don Cristobal
p1640
I1663
sVKanu
p1641
I1664
sVDon Pascual
p1642
I3216
sVSylvain Cathiard
p1643
I1668
sVFinca Los Maza
p1644
I1669
sVTierras Altas
p1645
I1670
sVAlpha Estate
p1646
I1671
sVMonmousseau
p1647
I1672
sVCol D'Orcia
p1648
I1673
sVLenz Moser
p1649
I1674
sVFabre Montmayou
p1650
I1152
sVMichel Torino
p1651
I1676
sVGiordano
p1652
I1677
sVTelteca
p1653
I1678
sVLamy Pillot
p1654
I1679
sVRayun
p1655
I1557
sVSaint Saturnin
p1656
I1682
sVVista Alegre
p1657
I1683
sVJean Marc Brocard
p1658
I3190
sVTablas Creek Vineyard
p1659
I544
sVKutjevo
p1660
I1685
sVClos De Chacras
p1661
I1686
sVStellenzicht
p1662
I1687
sVCasa Santos Lima
p1663
I448
sVThe Exquisite Collection
p1664
I1689
sVHavens
p1665
I1646
sVPecchenino
p1666
I1691
sVSours
p1667
I1692
sVBisson
p1668
I1693
sVConte Ottavio Piccolomini
p1669
I3728
sVDomaine Confuron Cotetidot
p1670
I1695
sVCastello Di Amorosa
p1671
I1697
sVParducci
p1672
I1698
sVBella Sera
p1673
I1699
sVAureo Spirito
p1674
I1700
sVTisdall
p1675
I1701
sVQuercus
p1676
I1702
sVCorvo
p1677
I1703
sVWatershed
p1678
I1704
sVSaint Louis
p1679
I1705
sVQuinta Dos Carvalhais
p1680
I1706
sVBurmester
p1681
I3414
sVDr. Konstantin Frank
p1682
I1707
sVHay Shed Hill
p1683
I4010
sVElio Altare
p1684
I1708
sVVincent
p1685
I1709
sVChateau Roumieu
p1686
I1710
sVRotari
p1687
I1711
sVChatelain
p1688
I1712
sVFerraton Pere Fils
p1689
I1713
sVChateau Roubine
p1690
I1714
sVCellier Des Princes
p1691
I1715
sVTerre Del Barolo
p1692
I1455
sVZaccagnini
p1693
I890
sVMassandra
p1694
I1718
sVViansa
p1695
I1721
sVFournier
p1696
I1722
sVVignalta
p1697
I1723
sVMills Reef
p1698
I1724
sVBibi Graetz
p1699
I1725
sVCornaro
p1700
I1726
sVAlain Paret
p1701
I1727
sVSeville Estate
p1702
I1728
sVMorrisons
p1703
I2341
sVMarkus Molitor
p1704
I1730
sVMercer
p1705
I1731
sVDiren
p1706
I1732
sVCycles Gladiator
p1707
I3452
sVHawkstone
p1708
I2536
sVNuiton Beaunoy
p1709
I1734
sVChateau Lorane
p1710
I1735
sVDomaine Antonin Guyon
p1711
I1736
sVTortoise Creek
p1712
I1737
sVNiepoort
p1713
I1738
sVJim Barry
p1714
I1739
sVEmile Chandesais
p1715
I1740
sVCornellana
p1716
I1741
sVCeller Capcanes
p1717
I1742
sVPage Springs
p1718
I1743
sVSalton
p1719
I1744
sVJean Durup
p1720
I1745
sVBisquertt
p1721
I675
sVCarlo Rossi
p1722
I1747
sVHenri Ehrhart
p1723
I1748
sVChimney Rock
p1724
I2319
sVGalil Mountain
p1725
I1750
sVMarco Felluga
p1726
I1751
sVMaset Del Lleo
p1727
I1752
sVThe Macallan
p1728
I2929
sVWeingut Kracher
p1729
I1753
sVIrache
p1730
I1754
sVCruse
p1731
I1755
sVElena Walch
p1732
I470
sVLeonesse Cellars
p1733
I1757
sVVentisqueiro
p1734
I1758
sVRiver Road
p1735
I1759
sVRuhlmann
p1736
I1760
sVStellar Organics
p1737
I1761
sVPalandri
p1738
I1762
sVArniston Bay
p1739
I1763
sVPieropan
p1740
I2388
sVLeitz
p1741
I1765
sVSutil
p1742
I1766
sVDal Pizzol
p1743
I1767
sVErnie Els
p1744
I1768
sVLorenz
p1745
I1769
sVSainte Eulalie
p1746
I1770
sVJean Rene Germanier
p1747
I1771
sVLos Haroldos
p1748
I1772
sVVecchia Cantina
p1749
I1773
sVVincent Dancer
p1750
I1774
sVPoggio Salvi
p1751
I1776
sVKendall Jackson
p1752
I1777
sVTwo Rivers
p1753
I1778
sVFox Creek
p1754
I1779
sVBava
p1755
I1781
sVRymill
p1756
I1782
sVLogan
p1757
I2335
sVChateau Des Charmes
p1758
I1783
sVGrace Vineyard
p1759
I1784
sVMeloni
p1760
I1785
sVWagner Stempel
p1761
I1786
sVBurgo Viejo
p1762
I1787
sVCasa Valduga
p1763
I948
sVDanza Del Sol
p1764
I1789
sVBrocard
p1765
I1790
sVBaldacci Family Vineyards
p1766
I1791
sVMontes
p1767
I580
sVRoger Sauvestre
p1768
I1793
sVChampagne Krug
p1769
I1794
sVAndean Vineyards
p1770
I1796
sVCakebread Cellars
p1771
I1797
sVJoseph Mellot
p1772
I1798
sVVallentin Bianchi
p1773
I1799
sVDom Brial
p1774
I1800
sVFeiler Artinger
p1775
I1801
sVCantine Riondo
p1776
I1802
sVSt Halletts
p1777
I1803
sVFerrari Carano
p1778
I1804
sVDaniel
p1779
I1805
sVMarcel Martin
p1780
I1806
sVSanta Rosa
p1781
I1807
sVHauller
p1782
I1808
sVCommanderie
p1783
I2882
sVDomaine Bruno Clavelier
p1784
I1809
sVJose Maria Da Fonseca
p1785
I1810
sVPacific Rim
p1786
I1812
sVAntis
p1787
I1813
sVReverie
p1788
I1814
sVMarani
p1789
I1815
sVLindeman\u9225\u6a9a
p1790
I1816
sVChampagne Henriot
p1791
I1817
sVWaitrose
p1792
I1818
sVMonticello Vineyards
p1793
I1819
sVOsterreich
p1794
I1820
sVTement
p1795
I1821
sVMon Morrison
p1796
I1822
sVChateau Bouscaut
p1797
I1823
sVSteven Kent
p1798
I1824
sVMuller
p1799
I1825
sVBellavita
p1800
I1826
sVTutunjian
p1801
I1827
sVSchrader Cellars
p1802
I1828
sVVier Jahreszeiten
p1803
I1829
sVOude Kaap
p1804
I1830
sVChevalier De Bayard
p1805
I1831
sVJean Sipp
p1806
I2802
sVThirsty Owl
p1807
I1833
sVChevalier
p1808
I1834
sVRoux Pere & Fils
p1809
I794
sVKreglinger Estates
p1810
I1836
sVChandon De Briailles
p1811
I1837
sVSteltzner
p1812
I1839
sVRequingua
p1813
I1840
sVFratelli Cella
p1814
I1675
sVLaboure Roi
p1815
I1842
sVLangguth
p1816
I2857
sVTeusner
p1817
I1844
sVChateau Rieussec
p1818
I1845
sVZnovin Znojmo
p1819
I1846
sVBertani
p1820
I1847
sVSalwey
p1821
I1848
sVLa Cave
p1822
I1850
sVThree Loose Screws
p1823
I1851
sVDomaine Faiveley
p1824
I1852
sVPirovano
p1825
I1853
sVQuiutarelli Giuseppe
p1826
I1854
sVCape Mentelle
p1827
I1855
sVReh Kendermann
p1828
I1856
sVManos Negras
p1829
I3087
sVSordo
p1830
I1858
sVQuasar
p1831
I2401
sVCasa Rivas
p1832
I1860
sVBrotte
p1833
I1861
sVDegani
p1834
I1863
sVBernard Dugat Py
p1835
I1864
sVCave du Roi Dagobert
p1836
I1865
sVAlmaden Vineyards
p1837
I1866
sVBassermann Jordan
p1838
I1867
sVCastello di Camigliano
p1839
I1868
sVWaterstone
p1840
I1869
sVHillside Estate
p1841
I1870
sVSoloperto
p1842
I1871
sVDu Toitskloof Cellar
p1843
I1873
sVPuiatti
p1844
I1680
sVGoyenechea
p1845
I1719
sVBouchard Aine Fils
p1846
I1876
sVChateau Poujeaux
p1847
I1877
sVFrescobaldi
p1848
I208
sVChateau Pape Clement
p1849
I1880
sVGabriel Liogier
p1850
I1881
sVAdega De Moncao
p1851
I1882
sVDi Majo Norante
p1852
I1883
sVDamiani
p1853
I1884
sVCantine Paolini
p1854
I1885
sVPiattelli
p1855
I4020
sVYealands
p1856
I1886
sVBlasted Church
p1857
I1887
sVBrancott Estate
p1858
I1888
sVQuinta do Monte d'Oiro
p1859
I1890
sVRadford Dale
p1860
I1892
sVRocland Estate
p1861
I1893
sVMad Fish
p1862
I3157
sVStep Rd
p1863
I3757
sVAbbazia di Novacella
p1864
I3975
sVWairau River
p1865
I1896
sVLyngrove
p1866
I1897
sVStefano Farina
p1867
I1898
sVDomaine Marc Kreydenweiss
p1868
I392
sVHutcheson
p1869
I1684
sVOriel
p1870
I1901
sVMonteforte
p1871
I1902
sVChampagne Philipponnat
p1872
I1903
sVMaison Roche de Bellene
p1873
I2671
sVRutherford
p1874
I930
sVSan Michele
p1875
I1905
sVMarks &amp; Spencer
p1876
I1907
sVChateau Angelus
p1877
I1908
sVCantina Valpantena
p1878
I1909
sVCardeto
p1879
I1910
sVTawse
p1880
I446
sVWild Rock
p1881
I2835
sVLeonardo
p1882
I1912
sVCamelot
p1883
I4053
sVAlfiero Boffa
p1884
I1913
sVCasanova di Neri
p1885
I3079
sVCremachi Furlotti
p1886
I1914
sVDomaine Rapet Pere Fils
p1887
I1915
sVDomaine des Baumard
p1888
I1916
sVDon Guerino
p1889
I1918
sVPizzorno
p1890
I1920
sVTres Palacios
p1891
I1921
sVFour Vines
p1892
I2412
sVSilvio Grasso
p1893
I1922
sVCroft Port
p1894
I3095
sVEspelt
p1895
I1925
sVAndre Lurton
p1896
I3365
sVMolino
p1897
I1926
sVChateau Cantenac Brown
p1898
I4012
sVStory
p1899
I1927
sVAbrau Durso
p1900
I1928
sVKathryn Kennedy
p1901
I1929
sVCass
p1902
I3096
sVPreiss Zimmer
p1903
I1931
sVMarkus Huber
p1904
I2110
sVComtes Lafon
p1905
I996
sVVilla Trasqua
p1906
I1933
sVKnapp
p1907
I3569
sVAlzinger
p1908
I1934
sVLongridge
p1909
I4018
sVWillow Bridge Estate
p1910
I1936
sVJoel Gott
p1911
I1937
sVChateau Haut Batailley
p1912
I1938
sVPlaimont
p1913
I1939
sVCastelnuovo Del Garda
p1914
I1940
sVDomaine Gros Frere et Soeur
p1915
I1005
sVLouis Boillot
p1916
I1942
sVChateau Lascombes
p1917
I1943
sVTeo Costa
p1918
I1944
sVNiedermayr
p1919
I1945
sVMatanzas Creek
p1920
I1946
sVDomaine Martin Schaetzel
p1921
I1947
sVAngelo Gaja
p1922
I1948
sVUxmal
p1923
I3769
sVJoseph Gruss
p1924
I1949
sVMontalbano
p1925
I1950
sVRustenberg
p1926
I1951
sVHumberto Canale
p1927
I1952
sVAtilio Avena
p1928
I1953
sVDuicher Crossing
p1929
I1954
sVSanta Cecilia
p1930
I1955
sVGreenock Creek Vineyard
p1931
I1956
sVAugust Kesseler
p1932
I1957
sVStrewn
p1933
I1959
sVMisiones De Rengo
p1934
I1960
sVTollot Beaut
p1935
I1961
sVBlack Sheep
p1936
I1963
sVDomaine Jean Noel Gagnard
p1937
I1964
sVAdeneuer
p1938
I1965
sVCostieres Pomerols
p1939
I1966
sVChampagne Bollinger
p1940
I1967
sVSogrape
p1941
I305
sVNavarro Vineyards
p1942
I1969
sVQuinta De La Rosa
p1943
I312
sVBodegas Marques de Murrieta
p1944
I1971
sVBogle Vineyards
p1945
I1972
sVAurora BR
p1946
I3653
sVLa Chapelle
p1947
I1973
sVCicchitti
p1948
I1974
sVCantine Colosi
p1949
I2387
sVMassolino
p1950
I3104
sVChateau Cissac
p1951
I2855
sVPepper Tree
p1952
I1088
sVAntech
p1953
I1977
sVMonsupello
p1954
I1978
sVPtujska Klet
p1955
I1979
sVPighin
p1956
I1980
sVRutini
p1957
I1981
sVMaison Lupe Cholet
p1958
I1982
sVCivicchioli
p1959
I1983
sVKleine Zalze
p1960
I1984
sVPierre Peters
p1961
I3106
sVJean Philippe Janoueix
p1962
I2424
sVManfredi
p1963
I1987
sVJoan Sarda
p1964
I1988
sVPenley Estate
p1965
I1989
sVCrios de Susana Balbo
p1966
I1990
sVRobert Ampeau & Fils
p1967
I1991
sVCharles Vienot
p1968
I1749
sVMaison Trimbach
p1969
I1993
sVCousino Macul
p1970
I4074
sVLeth
p1971
I1995
sVCanyon Road
p1972
I1996
sVPierre Naigeon
p1973
I3791
sVShannon Ridge
p1974
I2426
sVAbanico
p1975
I1999
sVDarling
p1976
I2000
sVOremus
p1977
I2001
sVDomaine Pascal Jolivet
p1978
I2002
sVSpringfield
p1979
I2003
sVReal
p1980
I2004
sVToasted Head
p1981
I3110
sVNovacorte
p1982
I2006
sVPoderi Luigi Einaudi
p1983
I2007
sVUmathum
p1984
I2008
sVHardys
p1985
I1838
sVAnima Negra
p1986
I2010
sVRJ Vinedos
p1987
I3590
sVSpier
p1988
I2011
sVAvalon
p1989
I2012
sVAegerter Jean Luc
p1990
I2013
sVRiefle
p1991
I2014
sVOlivier Bernstein
p1992
I2015
sVEgri Korona Borhaz
p1993
I2016
sVEsterhazy
p1994
I2017
sVStella Bella
p1995
I2018
sVPoplar Grove
p1996
I3307
sVSeifried
p1997
I2019
sVCathedral Ridge
p1998
I2020
sVFamille Bougrier
p1999
I2021
sVDe Wetshof Estate
p2000
I2022
sVGeyser Peak
p2001
I2023
sVSella & Mosca
p2002
I2024
sVVigneti Zabu
p2003
I2025
sVWhitehall Lane
p2004
I1968
sVChateau Croix Mouton
p2005
I2027
sVThe Little Penguin
p2006
I1448
sVBartali
p2007
I2029
sVDacastello
p2008
I2030
sVHahn
p2009
I2031
sVCasa Perini
p2010
I2032
sVMisiones de Rengo
p2011
I2033
sVCave Saint Desirat
p2012
I2034
sVValckenberg
p2013
I2035
sVValentin Bianchi
p2014
I2036
sVClos Mogador
p2015
I2037
sVBethany
p2016
I3787
sVCascina Luisin
p2017
I2039
sVVinosia
p2018
I2040
sVIl Conte
p2019
I2041
sVEtienne Sauzet
p2020
I2042
sVCavazza
p2021
I2043
sVFromm
p2022
I855
sVChappellet
p2023
I2045
sVDesierto
p2024
I2046
sVTishbi
p2025
I2047
sVIronstone
p2026
I2048
sVDomaine Henri Boillot
p2027
I2049
sVDomaine Marcel Deiss
p2028
I2050
sVGeorges Duboeuf
p2029
I444
sVChateau Pierre Bise
p2030
I2054
sVChateau Larose Trintaudon
p2031
I778
sVGerard Depardieu
p2032
I2056
sVSanta Julia
p2033
I856
sVWeingut Prager
p2034
I2058
sVKnappstein
p2035
I20
sVSoleil
p2036
I2060
sVSalvano
p2037
I2061
sVWilliamson Wines
p2038
I2062
sVBaron D'Arignac
p2039
I54
sVSan Leonardo
p2040
I2065
sVWeingut Bernhard Huber
p2041
I2066
sVVillard
p2042
I66
sVBeelgara Estate
p2043
I2068
sVJean d'Aosque
p2044
I2069
sVSchmidt
p2045
I2070
sVBadia Di Morrona
p2046
I92
sVSan Martino
p2047
I95
sVMt. Boucherie
p2048
I100
sVS.A. Prum
p2049
I2074
sVFernand Engel
p2050
I2075
sVThorn Clarke
p2051
I107
sVSeguin Manuel
p2052
I2078
sVWilliams & Humbert
p2053
I2079
sVRobert Hall
p2054
I2080
sVByington Vineyard
p2055
I2081
sVMarques De Caceres
p2056
I2084
sVCantina Sardus Pater
p2057
I2085
sVRosenblum Cellars
p2058
I2086
sVMt Difficulty
p2059
I2087
sVChateau Troplong Mondot
p2060
I2088
sVChateau Mouton Rothschild
p2061
I2089
sVSarah's Vineyard
p2062
I3122
sVUndurraga
p2063
I175
sVSobon Estate
p2064
I2091
sVTabernero
p2065
I3801
sVParallel
p2066
I2093
sVBonvin
p2067
I2094
sVDurigutti
p2068
I2095
sVDomaine Jean Jacques Girard
p2069
I2096
sVSainte Marie
p2070
I2097
sVDopff & Irion
p2071
I2098
sVMalgra
p2072
I220
sVLa Besnerie
p2073
I2100
sVRoberto Sarotto
p2074
I3062
sVRoganto
p2075
I2102
sVAbbe Rous
p2076
I2103
sVNavarra Correas
p2077
I2104
sVArrogant Frog
p2078
I2105
sVMorande
p2079
I2107
sVWayne Gretzky Estates
p2080
I257
sVWild Horse
p2081
I268
sVDomaine Bruno Colin
p2082
I3554
sVNavarro Correas
p2083
I34
sVMorando
p2084
I2111
sVPaolo Scavino
p2085
I301
sVCosta Lazaridis
p2086
I2114
sVEguren
p2087
I1716
sVVriesenhof Vineyard
p2088
I2116
sVChateau Giscours
p2089
I316
sVVendange
p2090
I2118
sVCoste Caumartin
p2091
I1717
sVChateau Branaire (Duluc Ducru)
p2092
I333
sVLa Rioja Alta S.A.
p2093
I2121
sVCono Sur Vineyards
p2094
I2123
sVLafite Rothschild
p2095
I2124
sVComte Senard
p2096
I2125
sVMagnotta
p2097
I356
sVBruno Clair
p2098
I2127
sVNoval
p2099
I361
sVGialdi
p2100
I2129
sVMan Vintners
p2101
I2934
sVMaison Anselmet
p2102
I2130
sVZlatan Otok
p2103
I2131
sVCavalchina
p2104
I2132
sVFlipflop
p2105
I2451
sVRasteau
p2106
I429
sVPerrin & Fils
p2107
I2135
sVGiogantinu
p2108
I2902
sVChateau St. Jean
p2109
I2136
sVContratto
p2110
I2137
sVPonzi Vineyards
p2111
I2138
sVAgustinos
p2112
I2139
sVGiovanni Rosso
p2113
I2140
sVCielo E Terra
p2114
I461
sVChateau Kirwan
p2115
I463
sVAstoria
p2116
I658
sVAnadas
p2117
I2143
sVFasoli Gino
p2118
I479
sVMartinez
p2119
I2147
sVSimonnet Febvre
p2120
I2148
sVUggiano
p2121
I3847
sVOntanon
p2122
I2149
sVLa Roncier
p2123
I1573
sVTenuta Sette Ponti
p2124
I2151
sVArbor Mist
p2125
I2152
sVCastelvecchio
p2126
I2153
sVKloster Eberbach
p2127
I2154
sVCascina Bruni
p2128
I2155
sVBodegas Riojanas
p2129
I2156
sVAntares
p2130
I2157
sVCallaway
p2131
I555
sVVal Di Vieso
p2132
I2159
sVFrederic Esmonin
p2133
I2160
sVBouvet Ladubay
p2134
I588
sVAdrien Vacher
p2135
I2163
sVVilliera
p2136
I2164
sVBarbi
p2137
I612
sVMark Ryan
p2138
I3006
sVRosenhof
p2139
I2166
sVYvon Mau
p2140
I2167
sVGibbson Valley
p2141
I2168
sVEos
p2142
I2169
sVPetrus
p2143
I632
sVDomaine Joseph Voillot
p2144
I2172
sVStones Throw
p2145
I364
sVSunce
p2146
I2174
sVLuigi Righetti
p2147
I1624
sVYering Station
p2148
I663
sVMartinez Lacuesta
p2149
I671
sVHorst Sauer
p2150
I2178
sVO.Fournier
p2151
I2179
sVQuinta Do Noval
p2152
I2180
sVOpus One
p2153
I2181
sVPeninsula Cellars
p2154
I3817
sVLivio Felluga
p2155
I4062
sVDelectus
p2156
I2184
sVElk Cove Vineyards
p2157
I2185
sVGeorg Moosbacher
p2158
I2186
sVAlbert Souniy
p2159
I2187
sVSilver Lakes
p2160
I2188
sVLos Condes
p2161
I2189
sVTelavi Wine Cellar
p2162
I2190
sVEnrique Mendoza
p2163
I2191
sVForrest
p2164
I758
sVFlora Springs
p2165
I2193
sVSaint Martin
p2166
I2194
sVClos du Bois
p2167
I2195
sVLes Vignerons Ardechois
p2168
I2196
sVHex Vom Dasenstein
p2169
I787
sVDomaine Chante Cigale
p2170
I2200
sVMount Pleasant
p2171
I2201
sVMarchese Di Cerivo
p2172
I2203
sVVilla Pillo
p2173
I4058
sVCantine Due Palme
p2174
I2204
sVLeon Perdigal
p2175
I827
sVTapiz
p2176
I2206
sVAndre Ziltner
p2177
I2207
sVWeingut Donnhoff
p2178
I843
sVChateau La Tour Carnet
p2179
I3999
sVBest's Great Western
p2180
I2209
sVPatrick Lesec
p2181
I2210
sVBuena Vista
p2182
I2211
sVMartha Clara
p2183
I2212
sVMcGuigan
p2184
I3713
sVSaint Clair Family Estate
p2185
I2213
sVBergstrom
p2186
I2214
sVFrancois Janoueix
p2187
I2215
sVChateau Beychevelle
p2188
I2216
sVSanta Maria
p2189
I2217
sVAlpha Domus
p2190
I2219
sVLuis Alegre
p2191
I2220
sVL.A. Cetto
p2192
I575
sVToogood Estate
p2193
I2223
sVTiefenbrunner
p2194
I2224
sVMarks & Spencer
p2195
I2225
sVMestre
p2196
I2226
sVValoria
p2197
I2227
sVChateau Citran
p2198
I2228
sVAlkoomi
p2199
I2229
sVBodega Pirineos
p2200
I255
sVPampas Del Sur
p2201
I2231
sVSaxum Vineyards
p2202
I2232
sVDourthe
p2203
I2233
sVMasi
p2204
I2234
sVFirst Drop
p2205
I2235
sVCinnabar
p2206
I2236
sVLone Madrone
p2207
I3144
sVSauska
p2208
I2238
sVRodney Strong
p2209
I1962
sVRegusci Winery
p2210
I2240
sVVina San Pedro
p2211
I1025
sVAttilio Contini
p2212
I2243
sVWaterkloof
p2213
I2244
sVMichele & Patrice Rion
p2214
I2245
sVHavana Hills
p2215
I2246
sVDe Martino
p2216
I1053
sVBrise De France
p2217
I2249
sVDomenique Laurent
p2218
I2250
sVZamecke Vinarstvi Bzenec
p2219
I2251
sVDomaine Georges Vernay
p2220
I1066
sVRene Lequin Colin
p2221
I2432
sVByron
p2222
I2253
sVChateau Leoville Las Cases
p2223
I2254
sVHartwell
p2224
I2255
sVGrandi Vigne
p2225
I2832
sVDesert Hills Estate
p2226
I2258
sVAmiot Guy Et Fils
p2227
I2259
sVHollick
p2228
I2260
sVInama
p2229
I2261
sVCasa De La Ermita
p2230
I2208
sVGustave Lorentz
p2231
I2262
sVBuzet
p2232
I2263
sVAndre Et Mireille Tissot
p2233
I2264
sVAveleda
p2234
I2265
sVConti Sertoli Salis
p2235
I2266
sVDomaine Huet
p2236
I2267
sVVarga
p2237
I1171
sVFattorie Melini
p2238
I1917
sVLa Contea
p2239
I2270
sVLuis Pato
p2240
I2271
sVRivera
p2241
I2112
sVYllera
p2242
I1775
sVWiens
p2243
I2274
sVKiona Vineyards
p2244
I2275
sVTempus Alba
p2245
I1212
sVViapiana
p2246
I2277
sVPeter Mertes
p2247
I2278
sVMarc Colin & Fils
p2248
I2279
sVHautes Cotes
p2249
I2280
sVChateau de Rayne Vigneau
p2250
I2281
sVDehlinger
p2251
I2282
sVLes Grandes Serres
p2252
I2283
sVAlves De Sousa
p2253
I2284
sVPizzato
p2254
I1594
sVFritz Windisch
p2255
I1273
sVSnoqualmie
p2256
I3831
sVChateau Saint Jean
p2257
I2288
sVPenfolds
p2258
I2289
sVTempus
p2259
I2290
sVTabor Hill
p2260
I2291
sVHarvey River Bridge Estate
p2261
I2292
sVLe Arche
p2262
I2293
sVJoseph Phelps Vineyards
p2263
I2294
sVChateau de Pennautier
p2264
I2295
sVForadori
p2265
I2296
sVPavelot
p2266
I2297
sVBodega El Esteco
p2267
I2298
sVPierre Andre
p2268
I2299
sVVenosa
p2269
I1335
sVTempus Two
p2270
I2239
sVVerget
p2271
I2302
sVSenorio de Barahonda
p2272
I2303
sVCarmel Mizrachi
p2273
I1746
sVRobert Oatley
p2274
I2305
sVChateau Vieux Moulin
p2275
I2306
sVBove
p2276
I2307
sVTaylors
p2277
I2308
sVRobert Gillard
p2278
I1367
sVSchneider
p2279
I2310
sVBillecart Salmon
p2280
I1377
sVLucien Crochet
p2281
I2312
sVGreatwall
p2282
I2313
sVEymas
p2283
I2314
sVPetaluma
p2284
I2315
sVGeorg Breuer
p2285
I2316
sVBleasdale
p2286
I2317
sVChateau Le Gay
p2287
I2318
sVVina Casablanca
p2288
I2320
sVBrumont
p2289
I2230
sVBuxy
p2290
I2322
sVClaude Nouveau
p2291
I2323
sVRedbank
p2292
I1058
sVCarmim
p2293
I2325
sVJohanes Boubee
p2294
I2199
sVSanto Tomas
p2295
I2328
sVBella Piazza
p2296
I2329
sVThibault Liger Belair
p2297
I4038
sVLancyre
p2298
I2330
sVCantina Santa Maria La Palma
p2299
I2331
sVPierre Frick
p2300
I2332
sVMoselland
p2301
I2333
sVLavis
p2302
I2334
sVRavanal
p2303
I387
sVGerard Betrand
p2304
I2336
sVZorgvliet
p2305
I2337
sVDomaine Boyar
p2306
I3880
sVAu Bon Climat
p2307
I2338
sVJolys
p2308
I2339
sVLanglois Chateau
p2309
I2340
sVNicolas
p2310
I2342
sVGerhard Markowitsch
p2311
I2343
sVDonatella Cinelli Colombini
p2312
I2344
sVDomenico
p2313
I2345
sVBodegas Faustino
p2314
I1555
sVAbbazia Santa Anastasia
p2315
I701
sVBalma Venitia
p2316
I2348
sVWynns Coonawarra Estate
p2317
I1563
sVAlbert Bochot
p2318
I2350
sVWaterbrook
p2319
I2351
sVCa Del Baio
p2320
I2352
sVStonyridge
p2321
I1575
sVPKNT
p2322
I3842
sVCastoro Cellars
p2323
I2355
sVBianchi
p2324
I1591
sVChapel Hill
p2325
I3600
sVBorie Manoux
p2326
I1125
sVBarbanera
p2327
I2358
sVBarons de Rothschild
p2328
I2359
sVEvans & Tate
p2329
I2360
sVChampagne Louis Roederer
p2330
I2361
sVChateau De Cayx
p2331
I2362
sVTokaj Kereskedohaz
p2332
I2481
sVUvas Felices
p2333
I2364
sVFrey Sohler
p2334
I2365
sVReine Pedauque
p2335
I826
sVDomaine Jacques Prieur
p2336
I1643
sVPanizzon
p2337
I2368
sVWilliam Hill
p2338
I1657
sVWeingut Brundlmayer
p2339
I2370
sVValdo
p2340
I2371
sVMonticello
p2341
I2372
sVBriego
p2342
I3846
sVChono
p2343
I2375
sVFirst Cape
p2344
I2376
sVSwartland Winery
p2345
I2377
sVLa Baume
p2346
I2378
sVCa Rugate
p2347
I2379
sVNQN
p2348
I2380
sVSan Lorenzo
p2349
I2381
sVBodegas Lozano
p2350
I2173
sVVinarte
p2351
I2383
sVVeramonte
p2352
I2384
sVMacari
p2353
I2385
sVVignerons de Buxy
p2354
I2386
sVBrotherhood
p2355
I376
sVVilla Francioni
p2356
I1764
sVNapa Cellars
p2357
I2389
sVDomaine Chandon
p2358
I2390
sVFilus
p2359
I2391
sVRombauer Vineyards
p2360
I2392
sVPalladino
p2361
I2965
sVChateau Beauregard
p2362
I2395
sVBridlewood Estate
p2363
I974
sVLa Carraia
p2364
I2397
sVMalbec
p2365
I2398
sVTuniche
p2366
I2399
sVPoderi Del Paradiso
p2367
I2400
sVDanzante
p2368
I1859
sVMichel Lafarge
p2369
I2402
sVd'Arenberg
p2370
I2403
sVMurviedro
p2371
I1872
sVArtesa
p2372
I1879
sVVignabaldo
p2373
I2406
sVJean Gagnerot
p2374
I3169
sVSanta Carelina
p2375
I2408
sVPaul Sapin
p2376
I2409
sVCarretta
p2377
I2410
sVDomaine Henri Gouges
p2378
I2411
sVWilliams Selyem
p2379
I1617
sVPasetti
p2380
I2414
sVLamoreaux Landing
p2381
I2415
sVFred Loimer
p2382
I2491
sVDonatien Bahuaud
p2383
I2417
sVTaylor's Port
p2384
I2418
sVRaposeira
p2385
I2419
sVPieroth
p2386
I2420
sVAnnie's Lane
p2387
I1167
sVPascal Marchand
p2388
I2422
sVHoneywood
p2389
I2423
sVPierre Jean
p2390
I1986
sVGuillaume
p2391
I2425
sVArgento
p2392
I1998
sVVina Ijalba
p2393
I2427
sVTerlato Family
p2394
I2428
sVChateau Ferrand
p2395
I1696
sVCantina Tudernum
p2396
I2430
sVGrevepesa
p2397
I2431
sVSanta Carolina
p2398
I1318
sVCoop
p2399
I2433
sVFarina
p2400
I2434
sVGood Hope
p2401
I152
sVKrupp Brothers
p2402
I2436
sVLoxarel
p2403
I2437
sVSouth Coast
p2404
I2438
sVAlbet i Noya
p2405
I2439
sVAtichi Poderi
p2406
I2440
sVRenaissance
p2407
I2441
sVCampillo
p2408
I3826
sVCentro Espanolas
p2409
I2442
sVJ. Bouchon
p2410
I2444
sVHagafen Cellar
p2411
I2445
sVMucci
p2412
I2446
sVPalacio
p2413
I3841
sVArtisan
p2414
I2447
sVRobert Mondavi Winery
p2415
I2448
sVDomaine Clavel
p2416
I2449
sVConti Zecca
p2417
I2450
sVNone
p2418
I2133
sVGigi Rosso
p2419
I2452
sVLePlan Vermeersch
p2420
I2453
sVMaestri Cantinieri
p2421
I2455
sVKorta
p2422
I1665
sVDomaine des Escaravailles
p2423
I2182
sVFratelli Serio & Battista Borgogno
p2424
I2840
sVCristia
p2425
I2458
sVRoblar
p2426
I2459
sVDomaines Schlumberger
p2427
I1795
sVTalley Vineyards
p2428
I2461
sVDubreuil Fontaine
p2429
I2462
sVDie Weinmacher
p2430
I2464
sVMoutard
p2431
I2465
sVCourtney Benham
p2432
I1321
sVMarchesi Di Barolo
p2433
I2467
sVMarques De Marialva
p2434
I2468
sVCavatina
p2435
I2273
sVLeon Boesch
p2436
I3559
sVBenziger Family Winery
p2437
I2470
sVBocopa
p2438
I2471
sVArmand Dartois
p2439
I2472
sVHenrys Drive
p2440
I2499
sVAlexandria Nicole
p2441
I2474
sVBriar Rose
p2442
I3179
sVFrankland Estate
p2443
I2476
sVVantini
p2444
I2477
sVWalter Skoff
p2445
I2478
sVLeasingham
p2446
I2479
sVChanson
p2447
I2480
sVDomaine Bouchard Pere Fils
p2448
I2363
sVMendoza
p2449
I2483
sVAuggener Schaf
p2450
I2484
sVKellerei Kaltern
p2451
I2485
sVMonastier
p2452
I2486
sVDe Angelis
p2453
I2487
sVChateau Beauchene
p2454
I2488
sVSherwood Estate
p2455
I2489
sVColognola Ai Colli
p2456
I2490
sVVon Strasser
p2457
I2435
sVMontalto
p2458
I2416
sVLa Rural
p2459
I2492
sVGlen Carlou
p2460
I3763
sVFritz Haag
p2461
I2493
sVCupcake
p2462
I2494
sVDrappier
p2463
I2495
sVMorin Pere &amp; Fils
p2464
I2496
sVKientzheim Kaysersberg
p2465
I2497
sVRudd
p2466
I2498
sVMargerum
p2467
I1432
sVSacred Hill
p2468
I2500
sVDr. Crusius
p2469
I3182
sVSartori
p2470
I2501
sVMas Amiel
p2471
I2502
sVHaute Croix
p2472
I2503
sVSchloss Gobelsburg
p2473
I2504
sVLuc Pirlet
p2474
I2505
sVErvideira
p2475
I2506
sVTulip Hill
p2476
I2507
sVLaroque
p2477
I2508
sVFabiano
p2478
I2509
sVCinzano
p2479
I2510
sVBuller
p2480
I2511
sVCasella
p2481
I2512
sVGeantet Pansiot
p2482
I3184
sVJustin
p2483
I2513
sVLeone De Castris
p2484
I2514
sVArizona Stronghold
p2485
I2515
sVEyzaguirre
p2486
I2516
sVAlorna
p2487
I2517
sVTerres D'Avignon
p2488
I2518
sVJax Vineyards
p2489
I2520
sVHeinz Schmitt
p2490
I2521
sVKEO
p2491
I2522
sVChateau de Saint Martin
p2492
I2523
sVBennati
p2493
I2524
sVForest Ville
p2494
I2525
sVFrancesco Boschis
p2495
I2526
sVBarrel Oak
p2496
I2527
sVCharles Lafitte
p2497
I3443
sVSean Minor
p2498
I2528
sVIsla Negra
p2499
I2529
sVLang Vineyards
p2500
I2530
sVDavid Duband
p2501
I2531
sVKooyong
p2502
I2532
sV14 Hands
p2503
I2534
sVDirty Laundry
p2504
I2535
sVMarcus James
p2505
I1215
sVMas De Daumas Gassac
p2506
I2538
sVSiete Fincas
p2507
I2539
sVOliver
p2508
I2755
sVTikves
p2509
I2541
sVEstancia
p2510
I2542
sVBalthasar Ress
p2511
I2543
sVLynfred Winery
p2512
I2544
sVHeritage
p2513
I2545
sVMovia
p2514
I2546
sVCollosorbo
p2515
I3663
sVRozes
p2516
I2547
sVMessina Hof
p2517
I2548
sVJean Louis Trocard
p2518
I2549
sVCave Du Marmandais
p2519
I3027
sVOpolo Vineyards
p2520
I2473
sVMario Collina
p2521
I2552
sVGallo
p2522
I2553
sVBodegas Piqueras
p2523
I2554
sVTuilerie
p2524
I3036
sVDon Giovanni
p2525
I2555
sVVirginie
p2526
I2556
sVSilver Oak Cellars
p2527
I1729
sVAraujo Estate
p2528
I2559
sVRutherford Hill
p2529
I2560
sVPagos Del Rey
p2530
I2561
sVSan Isidro
p2531
I2562
sVWohlmuth
p2532
I2563
sVMoillard
p2533
I2564
sVBodega Septima
p2534
I2565
sVStobi
p2535
I2566
sVPlozza
p2536
I3813
sVAdelaida Cellars
p2537
I2567
sVPride Mountain Vineyards
p2538
I2568
sVCave des Vins de Sancerre
p2539
I2569
sVMirassou
p2540
I3883
sVDoudet Naudin
p2541
I2570
sVDomaine Grosset
p2542
I2571
sVMurdoch James
p2543
I2572
sVPollara
p2544
I2573
sVTamburlaine
p2545
I2574
sVSummers
p2546
I2924
sVSanta Teresa
p2547
I2577
sVMartini
p2548
I2578
sVThe Wine Society
p2549
I2579
sVChateau Belingard
p2550
I2580
sVMagellan
p2551
I2581
sVNewton Vineyard
p2552
I2582
sVChateau Gazin
p2553
I3581
sVMarchigue
p2554
I2583
sVKalyra
p2555
I2584
sVAcacia
p2556
I1788
sVSt. Francis
p2557
I2557
sVJean Philippe Marchand
p2558
I2202
sVGnarly Head
p2559
I2588
sVJean Claude Fromont
p2560
I2589
sVNeethlingshof
p2561
I2590
sVPascal Bouchard
p2562
I2591
sVPelter
p2563
I2592
sVIvanhoe
p2564
I2593
sVAndre Beaufort
p2565
I2594
sVRust En Vrede
p2566
I2596
sVMontresor
p2567
I2597
sVDelicato Family Vineyards
p2568
I3102
sVPalacios Remondo
p2569
I2599
sVMarco Carpineti
p2570
I2600
sVValdivieso
p2571
I1792
sVPeter Brum
p2572
I2602
sVEl Coto
p2573
I2241
sVLa Gravette
p2574
I2604
sVLandgraf
p2575
I2606
sVTerres Secretes
p2576
I2607
sVNeudorf Vineyards
p2577
I2608
sVVina Mayor
p2578
I2609
sVErath
p2579
I1203
sVDr. Zenzen
p2580
I2611
sVDes Eyssards
p2581
I2612
sVRoger Sabon
p2582
I2613
sVLamothe De Haux
p2583
I2614
sVGroot Constantia
p2584
I1997
sVRobert Sirugue
p2585
I2616
sVEllwanger
p2586
I2618
sVLes Fils Maye
p2587
I2619
sVTerrabianca
p2588
I2620
sVRed Newt Cellars
p2589
I2621
sVFinca Las Moras
p2590
I2622
sVHunt Country Vineyards
p2591
I2623
sVChiarli Wine
p2592
I2624
sVSaviah
p2593
I2625
sVVentana
p2594
I2626
sVTintara
p2595
I2628
sVDomaine Michel Niellon
p2596
I1107
sVErnest Julio Gallo
p2597
I2630
sVSterling Vineyard
p2598
I2631
sVCave Vinicole de Hunawihr
p2599
I2632
sVVasse Felix
p2600
I2634
sVBeau Rivage
p2601
I2635
sVPeter Franus
p2602
I2636
sVTerra Andina
p2603
I2638
sVFinca La Estacada
p2604
I2404
sVAlexander Valley
p2605
I2640
sVCramele Halewood
p2606
I2642
sVAntinori
p2607
I2643
sVCarl &amp; Fils
p2608
I2644
sVHanna Vineyards
p2609
I2645
sVBuonamico
p2610
I2646
sVOxford Landing
p2611
I2647
sVGraggy Range
p2612
I3748
sVA. Et P. De Villaine
p2613
I2648
sVEnzo Boglietti
p2614
I2649
sVAmdrew Peace
p2615
I2650
sVLucien Le Moine
p2616
I2537
sVJuve y Camps
p2617
I2653
sVMission Hill Family Estate
p2618
I2654
sVTeso La Monja
p2619
I2655
sVNormans
p2620
I2656
sVGranducato
p2621
I2558
sVCharles Shaw
p2622
I2658
sVBodegas Virgen del Aguila
p2623
I2659
sVWindsor
p2624
I2660
sVRecanati
p2625
I200
sVFrancois Villard
p2626
I2662
sVMonteabellon
p2627
I3968
sVJosef Friederich
p2628
I2663
sVMarion
p2629
I2664
sVOchagavia
p2630
I2665
sVFortant
p2631
I2666
sVDalton
p2632
I2667
sVGirlan
p2633
I2668
sVDivino Nordheim
p2634
I2669
sVStags Leap Winery
p2635
I1491
sVJacquesson
p2636
I2672
sVSaint Hilaire
p2637
I3250
sVTerrazas De Los Andes
p2638
I488
sVJean Demont
p2639
I2674
sVPatrick Javiller
p2640
I2675
sVGruaud Larose
p2641
I2676
sVChateau Corbin
p2642
I2677
sVArthur Metz
p2643
I2678
sVBodegas Luzon
p2644
I2679
sVBagordi
p2645
I3203
sVBecker Vineyards
p2646
I2681
sVKir Yianni
p2647
I2682
sVSextant
p2648
I3204
sVPamukkale
p2649
I2684
sVCottanera
p2650
I2685
sVMoulin De Gassac
p2651
I2686
sVFrizzante
p2652
I2687
sVMarchesi Mazzei
p2653
I2688
sVGattavecchi
p2654
I2689
sVGal Tibor
p2655
I2690
sVRussolo
p2656
I1009
sVLa Castellina
p2657
I2692
sVDomaine De La Janasse
p2658
I3180
sVTerre
p2659
I2693
sVBrookland Valley
p2660
I2694
sVCellar No. 8
p2661
I3207
sVScanavino
p2662
I445
sVFeist
p2663
I2697
sVCruz Alta
p2664
I2698
sVPisano
p2665
I2699
sVJean Paul Selles
p2666
I2701
sVDrouet Freres
p2667
I2703
sVFalernia
p2668
I2704
sVJ.P.Chenet
p2669
I14
sVSilverado Vineyards
p2670
I2706
sVCamilleri
p2671
I2707
sVPhilipe Pacalet
p2672
I2708
sVDel Dotto
p2673
I2710
sVPrincipi Di Butera
p2674
I2711
sVCampagnola
p2675
I2171
sVDe Krans
p2676
I3546
sVDomaine Marquis d'Angerville
p2677
I2713
sVMill Creek
p2678
I3513
sVHerron Hill
p2679
I2714
sVCantina Tollo
p2680
I2454
sVKnipser
p2681
I2716
sVItynera
p2682
I2717
sVElyse
p2683
I2466
sVClavesana
p2684
I2720
sVGroote Post
p2685
I3812
sVConcilio
p2686
I2721
sVCraneford
p2687
I2722
sVMumm
p2688
I2723
sVBrunelli
p2689
I202
sVKatarzyna
p2690
I2726
sVKanonkop
p2691
I2727
sVLa Grange
p2692
I2728
sVMichel Gassier
p2693
I2382
sVRhodanienne
p2694
I2730
sVBay View
p2695
I2731
sVKoehler
p2696
I2732
sVAlexander Valley Vineyards
p2697
I2733
sVCeste
p2698
I2734
sVAndreas Oster
p2699
I2735
sVFratelli
p2700
I2736
sVSula
p2701
I2737
sVHubert Brochard
p2702
I2738
sVChateau Fonreaud
p2703
I2739
sVJean Pierre Moueix
p2704
I2740
sVBlack Tower
p2705
I2741
sVJean Claude Mas
p2706
I2742
sVKressmann
p2707
I2743
sVCosta
p2708
I4116
sVThe Golan Heights
p2709
I2394
sVMilon
p2710
I3214
sVRioja Vega
p2711
I2746
sVSanto Cristo
p2712
I2747
sVHelwig
p2713
I2748
sVAngove
p2714
I2749
sVBanrock Station
p2715
I2750
sVCarm
p2716
I2751
sVVan Zeller
p2717
I2752
sVLittorai
p2718
I2753
sVCasanova Di Neri
p2719
I1518
sVNottola
p2720
I2756
sVMot &amp; Chandon
p2721
I2757
sVAlain Jaume & Fils
p2722
I2758
sVCorinto
p2723
I2759
sVDon Cayetano
p2724
I2760
sVAlvear
p2725
I2761
sVLoron & Fils
p2726
I2762
sVGuasti Clemente
p2727
I2763
sVWhistler
p2728
I11
sVNickel & Nickel
p2729
I2765
sVFrancois Lurton
p2730
I2766
sVBiltmore Estate
p2731
I2767
sVVranken
p2732
I2768
sVFischer
p2733
I2769
sVSchloss Reinhartshausen
p2734
I2770
sVD Ardhuy
p2735
I2771
sVOld Vine
p2736
I2772
sVNissley
p2737
I2773
sVChateau Lynch Bages
p2738
I2774
sVDominique Porter
p2739
I3840
sVAragonesas
p2740
I2775
sVKunstler
p2741
I2776
sVClub des Sommeliers
p2742
I2777
sVChateau Musar
p2743
I2778
sVGuy Saget
p2744
I2779
sVBabcock Vineyards
p2745
I2780
sVColi
p2746
I2781
sVNouveau Salquenen
p2747
I2782
sVLouis Mousset
p2748
I4124
sVChateau De Valcombe
p2749
I2783
sVMarques De Comares
p2750
I122
sVDomaine Bruno Sorg
p2751
I2785
sVCantina di Negrar
p2752
I2786
sVFiuza
p2753
I162
sVFrank Family Vineyards
p2754
I2788
sVRaoul Henri
p2755
I3218
sVMaison Bouey
p2756
I2791
sVWilliam Cole Vineyards
p2757
I2792
sVKaiken
p2758
I2794
sVBelisario
p2759
I209
sVDuca Di Saragnano
p2760
I4080
sVFeudi Di San Gregorio
p2761
I2796
sVAfrican Terroir
p2762
I2798
sVMaschio
p2763
I2550
sVCaves Sao Joao
p2764
I2482
sVPelliegrino
p2765
I2800
sVSummerhill Pyramid
p2766
I702
sVPierre Sparr
p2767
I2724
sVDescendientes De J. Palacios
p2768
I2804
sVFerdinand Pieroth
p2769
I2805
sVEnate
p2770
I2806
sVHauts De Plaisance
p2771
I300
sVHewitson
p2772
I304
sVHofmann
p2773
I3509
sVFigula
p2774
I2809
sVManz
p2775
I1835
sVBargetto
p2776
I1395
sVScarpa
p2777
I2812
sVFerdinard Pieroth
p2778
I2813
sVKoehler Ruprecht
p2779
I336
sVDomaine Prieure Roch
p2780
I342
sVPfeffingen
p2781
I875
sVTormaresca
p2782
I2817
sVDomaine Roger Sabon
p2783
I2819
sVLa Quercia
p2784
I2820
sVBageiras
p2785
I2821
sVRobert Giraud
p2786
I2822
sVReal Companhia Velha
p2787
I2823
sVWilliamsburg Winery
p2788
I2824
sVVinedos Errazuriz Ovalle
p2789
I2825
sVDuca Di Castelmonte
p2790
I2826
sVChateau Ausone
p2791
I2827
sVSevilen
p2792
I406
sVDiemersfontein
p2793
I2829
sVGuicciardini Strozzi
p2794
I2830
sVSandhill
p2795
I2831
sVZeni
p2796
I2595
sVProvenance Vineyards
p2797
I2833
sVElesko
p2798
I2834
sVTrimbach
p2799
I2150
sVEl Porvenir
p2800
I2836
sVNeyers Vineyards
p2801
I4127
sVChateau Pichon Longueville Comtesse de Lalande
p2802
I2837
sVRocca Delle Macie
p2803
I456
sVSchmitges
p2804
I2839
sVFrancisco Casas
p2805
I462
sVFrancois Chidaine
p2806
I465
sVChakana
p2807
I2842
sVDon Laurindo
p2808
I2843
sVMonte Xanic
p2809
I2844
sVBodegas Muga
p2810
I2845
sVAndrea Oberto
p2811
I3137
sVZuccolo
p2812
I2847
sVPicchetti
p2813
I2848
sVFranco Conterno
p2814
I2849
sVMosby
p2815
I1841
sVGigondas La Cave
p2816
I2850
sVBadet Clement
p2817
I2851
sVHubert Lignier
p2818
I2852
sVUmani Ronchi
p2819
I2853
sVTua Rita
p2820
I2854
sVWindsor Sonoma
p2821
I561
sVRiglos
p2822
I2856
sVLolonis
p2823
I2858
sVDavid Bruce
p2824
I2860
sVMongeard Mugneret
p2825
I2861
sVClos LaChance
p2826
I3611
sVCasal Thaulero
p2827
I2862
sVRosario
p2828
I2863
sVFontanafredda
p2829
I773
sVWinzergenossenschaft
p2830
I2865
sVLinton Park
p2831
I2866
sVTardieu Laurent
p2832
I2867
sVDuorum
p2833
I3230
sVChampagne Pommery
p2834
I2869
sVMatua
p2835
I1862
sVAmity
p2836
I2871
sVAldegheri
p2837
I2617
sVBodega Del Fin Del Mundo
p2838
I2873
sVMauricio Lorca
p2839
I2874
sVSospirolo
p2840
I2875
sVQuerciabella
p2841
I678
sVBodega Monteviejo
p2842
I2877
sVProvins
p2843
I688
sVRio Sol
p2844
I3925
sVHarewood Estate
p2845
I2880
sVBlaauwklippen
p2846
I2881
sVLe Clos
p2847
I716
sVFoxen Vineyard
p2848
I2883
sVDomaine La Colombette
p2849
I2884
sVBolzano
p2850
I2885
sVBenziger Family
p2851
I3927
sVJoseph Verdier
p2852
I2887
sVBodegas Ondarre
p2853
I742
sVChateau Los Boldos
p2854
I2890
sVHarmony Cellars
p2855
I2891
sVBadagoni
p2856
I751
sVCelli
p2857
I2893
sVCovides
p2858
I2894
sVChateau Saint Paul
p2859
I2895
sVBellingham
p2860
I2896
sVGlenmorangie
p2861
I2897
sVDusted Valley
p2862
I2898
sVDomaine Dujac
p2863
I2899
sVLandmark
p2864
I2900
sVTiera Alta
p2865
I4099
sVSauvion
p2866
I2901
sVSokol Blosser
p2867
I943
sVPfaffenheims
p2868
I2903
sVAllram
p2869
I2904
sVLaugel
p2870
I2906
sVLas Moras
p2871
I812
sVMichael Pozzan
p2872
I2908
sVDarling Cellars
p2873
I820
sVKarl Erbes
p2874
I3237
sVLuiz Argenta
p2875
I2911
sVMenada
p2876
I2912
sVBrejoeira
p2877
I836
sVBergdolt
p2878
I2914
sVMoreson
p2879
I2915
sVSamos
p2880
I2916
sVContino
p2881
I2917
sVMaurice Schoech
p2882
I2918
sVKuhling Gillot
p2883
I2920
sVElfenhof
p2884
I2921
sVCarl Loewen
p2885
I2922
sVVinum
p2886
I2923
sVDupont Tisserandot
p2887
I2811
sVGerard Bertrand
p2888
I413
sVCharles de Cazanove
p2889
I2927
sVArietta
p2890
I2928
sVCasa De Piedra
p2891
I921
sVHartenberg
p2892
I377
sVWeingut Robert Weil
p2893
I929
sVAzinda Agricola
p2894
I931
sVLake Breeze
p2895
I2933
sVTrinchero
p2896
I324
sVMiddle Sister
p2897
I3241
sVMedrano Estate
p2898
I2936
sVDeaver
p2899
I1214
sVColombier
p2900
I959
sVSileni
p2901
I1065
sVTenuta Il Poggione
p2902
I2941
sVCavicchioli
p2903
I2942
sVSonnenhof
p2904
I2943
sVTrignon
p2905
I2944
sVBarberani
p2906
I4100
sVPerini
p2907
I2945
sVPatrizi
p2908
I2946
sVMacchia
p2909
I1007
sVSimonsig
p2910
I2948
sVMauro Veglio
p2911
I2949
sVRivetto
p2912
I2950
sVClemens Busch
p2913
I1024
sVKay Brothers
p2914
I2953
sVSeguin
p2915
I2954
sVLamadrid
p2916
I2956
sVMancura
p2917
I327
sVFecovita
p2918
I2957
sVVicomte Bernard de Romanet
p2919
I2958
sVLaura Hartwig
p2920
I2959
sVSan Pietro
p2921
I2960
sVFirriato
p2922
I2961
sVVan Ruiten
p2923
I2962
sVGary Farrell
p2924
I2963
sVPeninsula Ridge Estates
p2925
I3245
sVParinga Estate
p2926
I1498
sVBorgo San Michele
p2927
I1992
sVZorzal
p2928
I99
sVSan Felice
p2929
I2967
sVChateau Thieuley
p2930
I2968
sVAlois Lageder
p2931
I2797
sVSeppelt
p2932
I1128
sVLanzerac
p2933
I4016
sVChalone Vineyard
p2934
I2972
sVPapapietro Perry
p2935
I2973
sVAzelia
p2936
I1151
sVJean Geiler
p2937
I1155
sVWilson Creek
p2938
I1159
sVVina Tunquelen
p2939
I2977
sVAromo
p2940
I2978
sVMichele Chiarlo
p2941
I290
sVChateau Chantemerle
p2942
I2980
sVPiera Martellozzo
p2943
I2818
sVSt. Pauls
p2944
I1063
sVVina Mar
p2945
I2627
sVAdega Mayor
p2946
I2984
sVDr.Burklin Wolf
p2947
I2161
sVChateau Fombrauge
p2948
I1174
sVTenute Al Bano Carrisi
p2949
I2987
sVMoulin Touchais
p2950
I3163
sVChateau Figeac
p2951
I3869
sVVilla Giada
p2952
I2988
sVJ. Lohr
p2953
I2989
sVLuca
p2954
I532
sVPrincipe Corsini
p2955
I2991
sVHenkell
p2956
I2992
sVSimon
p2957
I2993
sVLustau
p2958
I2994
sVFazi Battaglia
p2959
I1295
sVNova Terra
p2960
I2996
sVCarthage
p2961
I2997
sVSchloss Koblenz
p2962
I2998
sVVisan
p2963
I1324
sVTramin
p2964
I3000
sVJolimont
p2965
I3001
sVLangmeil
p2966
I1346
sVSiesta
p2967
I3003
sVAbbotts
p2968
I3004
sVLa Marca
p2969
I3005
sVSchiavenza
p2970
I1362
sVBosco
p2971
I3007
sVGracia De Chile
p2972
I3049
sVBarefoot Cellars
p2973
I2888
sVVina Valdivieso
p2974
I3009
sVBel Colle
p2975
I1382
sVDomaine Charles Audoin
p2976
I3011
sVChateau Thomas
p2977
I3256
sVCortes De Cima
p2978
I3013
sVChalk Hill
p2979
I2702
sVSanta Ema
p2980
I3015
sVRaffaldini
p2981
I3016
sVBehrens Family
p2982
I1428
sVFattoria Le Pupille
p2983
I3018
sVKoch
p2984
I3019
sVSan Giuseppe
p2985
I3020
sVYarra Yering
p2986
I3021
sVSan Valero
p2987
I1453
sVArnoux & Fils
p2988
I3023
sVZuccardi
p2989
I3258
sVArboleda
p2990
I1472
sVZonin
p2991
I1477
sVColumbia Crest
p2992
I1874
sVVeuve Doussot
p2993
I3028
sVRoccamora
p2994
I3029
sVRavis Rakvice
p2995
I1497
sVMichlits Werner
p2996
I3031
sVMataromera
p2997
I1875
sVChateau Phelan Segur
p2998
I3032
sVCaldirola
p2999
I3033
sVFreyburg Unstrut
p3000
I3034
sVVenturini
p3001
I205
sVHaselgrove
p3002
I3037
sVWoodhouse
p3003
I3038
sVDomaine des Cassagnoles
p3004
I3039
sVCasas Del Toqui
p3005
I3040
sVChateau Lafon
p3006
I3041
sVBell
p3007
I3042
sVStolpman
p3008
I3043
sVTenuta Friggiali
p3009
I3811
sVDomaine Bertagna
p3010
I1603
sVCartlidge & Browne
p3011
I3046
sVAldo Conterno
p3012
I3047
sVCastorani
p3013
I3048
sVElan
p3014
I866
sVMc Guigan
p3015
I3050
sVMionetto
p3016
I3051
sVTurning Leaf
p3017
I2585
sVPillitteri Estates
p3018
I3052
sVSensi
p3019
I3053
sVJerome Quiot
p3020
I2586
sVKuentz Bas
p3021
I1614
sVCreation
p3022
I2587
sVMonte Paschoal
p3023
I3057
sVEstancia Estates
p3024
I1181
sVApex
p3025
I3059
sVPine Ridge
p3026
I3060
sVAlexander Laible
p3027
I3956
sVDeinhard
p3028
I3672
sVAzul Portugal
p3029
I3063
sVBeaucanon Estate
p3030
I3064
sVLuisa
p3031
I3065
sVSan Polo
p3032
I3066
sVMount Langi Ghiran
p3033
I3067
sVWashington Hills
p3034
I3068
sVFelsina Berardenga
p3035
I3069
sVKoyle
p3036
I3070
sVWeingut Muller Catoir
p3037
I3071
sVLa Delizia
p3038
I3072
sVVignerons
p3039
I138
sVLes Vins de Vienne
p3040
I3074
sVBrys Estate Vineyard & Winery
p3041
I3075
sVChateau de Pommard
p3042
I3076
sVBlack Barn Vineyards
p3043
I3077
sVAlta Alella
p3044
I3078
sVRabl
p3045
I2905
sVGarofoli
p3046
I834
sVTakler
p3047
I3081
sVQuivira
p3048
I3082
sVMartino
p3049
I3010
sVVolpe Pasini
p3050
I3085
sVHunt Cellars
p3051
I2119
sVSouth Coast Winery
p3052
I3086
sVHeinrich
p3053
I1857
sVDomaine de la Baume
p3054
I3088
sVWeninger
p3055
I3089
sVTresch
p3056
I3090
sVAlapay
p3057
I3091
sVLa Vinsobraise
p3058
I3092
sVPago Del Vicario
p3059
I3093
sVCasa Ferreirinha
p3060
I3094
sVMeeker
p3061
I3727
sVJuan Ramon Lozano
p3062
I1923
sVMeran
p3063
I3867
sVCastel Freres
p3064
I1930
sVChanson Pere & Fils
p3065
I3178
sVPhilippe Charlopin Parizot
p3066
I3097
sVRedHeads Studio
p3067
I3098
sVGiacosa
p3068
I3100
sVDe Tarczal
p3069
I134
sVTre Donne
p3070
I3101
sVBodegas Castillo
p3071
I3103
sVCeller des Dauphins
p3072
I2272
sVDomaine Ramonet
p3073
I1975
sVChateau de Marsannay
p3074
I3105
sVMaison Capitain Gagnerot
p3075
I1985
sVSanta Sofias
p3076
I3107
sVRoquefort
p3077
I3108
sVDomaine Berrien Cellars
p3078
I3109
sVCaliterra
p3079
I2005
sVGolden Grape Estate
p3080
I3111
sVAllesverloren
p3081
I3112
sVTrivento
p3082
I3113
sVCarol Shelton
p3083
I3114
sVLamouroux
p3084
I4052
sVDirler Cade
p3085
I3115
sVCattier
p3086
I2053
sVPasquier Desvignes
p3087
I3117
sVSt. Supery Vineyards
p3088
I3118
sVFairtrade
p3089
I3119
sVSterling Vineyards
p3090
I3120
sVStonecroft
p3091
I1028
sVL'Arco
p3092
I2122
sVCoopers Creek Vineyard
p3093
I2101
sVElephant Hill
p3094
I3125
sVMartin Ray
p3095
I143
sVAlfredo Roca
p3096
I3128
sVSanta Christina
p3097
I3129
sVChateau Branaire Ducru
p3098
I3130
sVBlossom Hill
p3099
I1994
sVSeppeltsfield
p3100
I3132
sVEl Maestro Sierra
p3101
I3275
sVAngeline
p3102
I3134
sVVilla Rinaldi
p3103
I3276
sVHans Wirsching
p3104
I3136
sVAngelini
p3105
I2197
sVLa Pieve
p3106
I3138
sVBridgeview
p3107
I3139
sVGironde
p3108
I3140
sVRoad 13 Vineyards
p3109
I3141
sVTaltarni
p3110
I3142
sVDowie Doole
p3111
I4060
sVCandido
p3112
I3143
sVTrinitas
p3113
I2237
sVInnocenti
p3114
I3145
sVArroyo
p3115
I3146
sVOdd Bins
p3116
I3362
sVTyrrell's
p3117
I3148
sVTerrazas de Los Andes
p3118
I3279
sVRobert Biale Vineyards
p3119
I3150
sVDi Giovanna
p3120
I3151
sVMonte De Oro
p3121
I2256
sVDomaine Cauhape
p3122
I3153
sVBotromagno
p3123
I3530
sVAldeanueva
p3124
I3155
sVBinyamina
p3125
I3156
sVImagery Estate
p3126
I3158
sVGermano Angelo
p3127
I3159
sVMocen
p3128
I3160
sVPulenta
p3129
I3161
sVXavier
p3130
I3162
sVNobilo
p3131
I1118
sVRossignol Trapet
p3132
I3164
sVWoolworths
p3133
I3165
sVVilla Mt. Eden
p3134
I3166
sVPelee Island
p3135
I3167
sVWeingut Willi Brundlmayer
p3136
I3168
sVImagery Estates
p3137
I2407
sVBacio Divino
p3138
I3170
sVNewton Johnson
p3139
I805
sVRene Barbier
p3140
I3172
sVMasciarelli
p3141
I3173
sVPierre Chanau
p3142
I3174
sVVilla Cafaggio
p3143
I3175
sVWolfer Estate
p3144
I3152
sVAlain Burguet
p3145
I2457
sVSimi
p3146
I3177
sVBalbas
p3147
I2463
sVDry Creek Vineyard
p3148
I2475
sVSan Micheli
p3149
I1899
sVZimmermann
p3150
I3181
sVChateau Minuty
p3151
I1900
sVPeachy Canyon
p3152
I1384
sVLuna Vineyards
p3153
I2615
sVDomane Wachau
p3154
I3185
sVAchaval Ferrer
p3155
I2460
sVBedrock Wine Co.
p3156
I3187
sVBertrand Ambroise
p3157
I3189
sVBeringer Vineyards
p3158
I1958
sVAdelsheim
p3159
I1584
sVZevenwacht
p3160
I3193
sVSawtooth
p3161
I814
sVChateau de Beaucastel
p3162
I3195
sVIl Falchetto
p3163
I3196
sVRenacer
p3164
I906
sVProvenza
p3165
I3198
sVFess Parker
p3166
I3199
sVFrancis Lurton
p3167
I3200
sVFamilia Barberis
p3168
I3201
sVTerra Bianca
p3169
I3202
sVSan Jose
p3170
I1904
sVHoughton
p3171
I2683
sVChateau Soutard
p3172
I3205
sVSolar Viejo
p3173
I3206
sVKings Estate
p3174
I2695
sVHospices De Beaune
p3175
I2700
sVOlarra
p3176
I1257
sVLuigi Nosca
p3177
I3210
sVValduga
p3178
I3211
sVDomaine Michel Magnien
p3179
I3212
sVLa Bastide Saint Dominique
p3180
I3213
sVGibson
p3181
I2745
sVBaron Philippe de Rothschild
p3182
I3215
sVBodegas Santa Ana
p3183
I1
sVAubert
p3184
I3217
sVDelhaize
p3185
I2789
sVChampagne Dom Perignon
p3186
I3219
sVVignerons de Caractere
p3187
I3220
sVRaul Perez
p3188
I3221
sVLakewood Vineyards
p3189
I3222
sVOyster Bay
p3190
I3295
sVPala
p3191
I3224
sVDomaine Pierre Gelin
p3192
I3225
sVC. Da Silva
p3193
I3226
sVMuri Gries
p3194
I3227
sVEl Grifo
p3195
I3228
sVChateau Montus
p3196
I3229
sVMorgenhof
p3197
I2868
sVBimbadgen
p3198
I3231
sVRobert
p3199
I3232
sVDomaine Marchand Freres
p3200
I3233
sVGesellmann
p3201
I3234
sVLa Versa
p3202
I3297
sVMi Sueno Winery
p3203
I2629
sVBorgo Reale
p3204
I2910
sVSchmitt Sohne
p3205
I3238
sVCaves Saint Pierre
p3206
I3239
sVSan Marzano
p3207
I960
sVGavioli
p3208
I2935
sVBeronia
p3209
I3242
sVBellevue Estate
p3210
I2784
sVFamilia Schroeder
p3211
I3243
sVCave Valcombe
p3212
I3244
sVKlein Karoo
p3213
I2964
sVMatysak
p3214
I3246
sVMedici Ermete
p3215
I3248
sVPere Ventura
p3216
I3249
sVCanepa
p3217
I705
sVLes Vignerons De La Mediterranee
p3218
I3983
sVConterno Fantino
p3219
I3252
sVLamberti
p3220
I3253
sVAnne Boeckhlin
p3221
I3254
sVW. Gisselbrecht
p3222
I3255
sVCastellblanch
p3223
I3012
sVChateau Calon Segur
p3224
I3257
sVRocca
p3225
I3024
sVEpicuro
p3226
I3259
sVSimonsvlei
p3227
I3260
sVPerez Cruz
p3228
I3261
sVHabanske Sklepy
p3229
I3262
sVTomasello
p3230
I3263
sVJacques Germanier
p3231
I3978
sVSaint Germain
p3232
I2551
sVBodegas Luis Canas
p3233
I1667
sVDomaine Albert Mann
p3234
I3267
sVStag's Leap Cellars
p3235
I3264
sVDurbanville Hills
p3236
I3401
sVLaporte
p3237
I3269
sVWillakenzie Estate
p3238
I3270
sVGuenoc
p3239
I3271
sVLuretta
p3240
I3272
sVTorreon De Paredes
p3241
I3273
sVTamaya
p3242
I3133
sVLaurent Miquel
p3243
I3135
sVPoliziano
p3244
I2846
sVChateau Gruaud Larose
p3245
I3278
sVReunis
p3246
I3124
sVEhrhart
p3247
I3280
sVWieninger
p3248
I3281
sVAmericana
p3249
I3988
sVKirkland Signature
p3250
I3282
sVFrancois Martenot
p3251
I3283
sVFonseca
p3252
I3284
sVWoodward Canyon
p3253
I3183
sVWyndham Estate
p3254
I3286
sVKavaklidere
p3255
I3287
sVViniterra
p3256
I3288
sVGran Baron
p3257
I3289
sVBodegas Borsao
p3258
I339
sVDaniel Bessiere
p3259
I3308
sVVignamaggio
p3260
I3293
sVConn Creek
p3261
I3294
sVCastillo Viejo
p3262
I3223
sVDomaine Les Goubert
p3263
I3296
sVPhilipp Kuhn
p3264
I3235
sVFarnese
p3265
I3298
sVJacques Girardin
p3266
I3299
sVRocca Di Castagnoli
p3267
I2639
sVDFJ Vinhos
p3268
I3301
sVMandorla
p3269
I3302
sVMooiplaas
p3270
I3303
sVTownshend
p3271
I3304
sVBalletto
p3272
I3305
sVHeller Estate
p3273
I3306
sVBrian Carter Cellars
p3274
I553
sVSandrone
p3275
I3292
sVChateau Barreyres
p3276
I3309
sVBersano
p3277
I3310
sVLe Salette
p3278
I3311
sVOrin Swift
p3279
I3312
sVFinca La Celia
p3280
I3313
sVWeinrieder
p3281
I3314
sVGabriel Meffre
p3282
I3247
sVRene Sparr
p3283
I3316
sVSieur d'Arques
p3284
I3317
sVBodega Navarro Correas
p3285
I3318
sVDarioush
p3286
I2652
sVMitolo
p3287
I3320
sVMacahapa Kokyp
p3288
I3755
sVLas Perdices
p3289
I3322
sVDiemersdal
p3290
I3323
sVRemoissenet Pere Fils
p3291
I3324
sVCastell del Remei
p3292
I1369
sVWilliam Harrison
p3293
I3327
sVPirramimma
p3294
I3328
sVDufouleur Pere & Fils
p3295
I3329
sVBrovia
p3296
I3330
sVNoemie Vernaux
p3297
I3332
sVGalasso
p3298
I3333
sVJosef Chromy
p3299
I3209
sVSchroder & Schyler
p3300
I3334
sVEric Texier
p3301
I3335
sVCavino
p3302
I3337
sVTe Mata Estate
p3303
I3338
sVTenuta Rapitala
p3304
I3339
sVPierre Damoy
p3305
I3340
sVHammel
p3306
I3341
sVJ. Vidal Fleury
p3307
I3315
sVDonelli
p3308
I3342
sVVicente Gandia
p3309
I3343
sVAdanti
p3310
I3344
sVLa Finca
p3311
I3345
sVBouchaine
p3312
I3346
sVDelaforce
p3313
I3347
sVLa Concepcion
p3314
I2324
sVFamilia Zuccardi
p3315
I3576
sVJ. Garcia Carrion
p3316
I3350
sVCosentino
p3317
I45
sVKorbel
p3318
I3352
sVCopain
p3319
I3353
sVBrogsitter
p3320
I3354
sVWilson
p3321
I3355
sVDomaine Tempier
p3322
I3356
sVChateau Smith Haut Lafitte
p3323
I3357
sVO. Fournier
p3324
I3358
sVDe Loach Vineyards
p3325
I2326
sVMatetic
p3326
I3360
sVCastle Rock Estate
p3327
I3361
sVFracis Ford Coppola
p3328
I3649
sVToscanini
p3329
I1522
sVVinum Regum Rex Vinorum
p3330
I3080
sVKen Forrester
p3331
I3364
sVNavajas
p3332
I3197
sVBenedicte & Stephane Tissot
p3333
I3366
sVClos Du Mont Olivet
p3334
I3367
sVWarwick
p3335
I3368
sVChateau Lagrezette
p3336
I3369
sVSantadi
p3337
I3370
sVDom Candido
p3338
I3319
sVCaruso & Minini
p3339
I3372
sVSt. Innocent
p3340
I3373
sVEpiphany Vineyards
p3341
I3374
sVLa Guyennoise
p3342
I3375
sVGonzalez Byass
p3343
I3376
sVMazzocco
p3344
I3377
sVChateau Olivier
p3345
I3378
sVBrooks
p3346
I3379
sVEdoardo Miroglio
p3347
I3381
sVChateau Climens
p3348
I3382
sVFratelli Levis
p3349
I2657
sVCheval Quancard
p3350
I1570
sVHungerford Hill
p3351
I3385
sVPegasus Bay
p3352
I3386
sVSonsierra
p3353
I1932
sVGayda
p3354
I3388
sVLes Combelles
p3355
I3300
sVOak Leaf
p3356
I3390
sVBarbeito
p3357
I1891
sVBear Creek
p3358
I3392
sVPorta
p3359
I3393
sVRoche De Bellene
p3360
I3394
sVLemon Creek
p3361
I3395
sVRutini Wines
p3362
I3396
sVBenanti
p3363
I3397
sVSchwarz
p3364
I3398
sVBodegas Montecillo
p3365
I3399
sVDon Elias
p3366
I3400
sVEmilio Moro
p3367
I2413
sVBodegas Bilbainas
p3368
I3402
sVPaul Blanc
p3369
I3403
sVPonte
p3370
I3404
sVTalbott Vineyards
p3371
I3405
sVJeanJean
p3372
I3406
sVChartron Et Trebuchet
p3373
I3407
sVChateau D\u2019Issan
p3374
I4122
sVDuplin
p3375
I3408
sVChateau Cabrieres
p3376
I3409
sVSainsbury's
p3377
I3981
sVHexamer
p3378
I2610
sVHenley Park
p3379
I3411
sVS.Anna
p3380
I3412
sVChateau Lagrange
p3381
I2576
sVPiper Heidsieck
p3382
I3325
sVArrowfield Estate
p3383
I3415
sVLes Faitieres
p3384
I2985
sVBorges
p3385
I1383
sVWeingut Gernot and Heike Heinrich
p3386
I3418
sVMichelot
p3387
I3419
sVTenimenti Ca' Bianca
p3388
I3420
sVDomaine Dupont Fahn
p3389
I3421
sVLanciola
p3390
I3422
sVCameron Hughes
p3391
I3127
sVMiraflores
p3392
I3424
sVVon Winning
p3393
I3425
sVLouis Max
p3394
I3426
sVFratelli Berlucchi
p3395
I3427
sVPoggio Le Volpi
p3396
I3428
sVJean Claude Debeaune
p3397
I3265
sVChateau Canon
p3398
I1314
sVDomaine Latour Giraud
p3399
I3431
sVChristian Audigier
p3400
I3432
sVErste & Neue
p3401
I2605
sVLupe Cholet
p3402
I3434
sVMildiani
p3403
I2
sVCasa Silva
p3404
I9
sVCornerstone Cellars
p3405
I3437
sVSerafino
p3406
I3438
sVIcardi
p3407
I3439
sVDominio del Plata
p3408
I3440
sVSummerland
p3409
I4015
sVJean Luc Colombo
p3410
I3442
sVMoncigale
p3411
I2979
sVAvondale
p3412
I3444
sVLucien Albrecht
p3413
I3445
sVGallo Family Vineyards
p3414
I3446
sVKistler
p3415
I72
sVDomaine Ponsot
p3416
I76
sVPaul Mas
p3417
I3083
sVDeutsches Weintor
p3418
I1420
sVPratello
p3419
I3451
sVMessias
p3420
I1313
sVBock Jozsef
p3421
I2670
sVCoppo
p3422
I3454
sVMahler Besse
p3423
I3455
sVVilla Puccini
p3424
I3456
sVLecheneaut
p3425
I4017
sVMaison Louis Jadot
p3426
I3458
sVVina Cobos
p3427
I3459
sVFattoria La Vialla
p3428
I3460
sVMorton Estate
p3429
I3147
sVVergelegen
p3430
I3462
sVLeon Beyer
p3431
I3463
sVChateau Meursault
p3432
I3464
sVAlexis Lichine
p3433
I3465
sVLa Cave De Geneve
p3434
I2930
sVPindar Vineyards
p3435
I3466
sVLouis Bernard
p3436
I191
sVSchloss Schonborn
p3437
I3123
sVGolan Heights Winery
p3438
I3468
sVBodegas Campo Viejo
p3439
I3469
sVYves Cuilleron
p3440
I2799
sVGilberts
p3441
I203
sVCeretto
p3442
I3471
sVWunsch Et Mann
p3443
I583
sVDivino
p3444
I3473
sVLes Celliers De Meknes
p3445
I3474
sVGoldeneye
p3446
I3475
sVInycon
p3447
I3476
sVUdaca
p3448
I3477
sVChateau Grand Puy Ducasse
p3449
I2983
sVAfrican Pride
p3450
I3478
sVTyrrell's Wines
p3451
I3479
sVLas Rocas de San Alejandro
p3452
I2673
sVVina El Principal
p3453
I3481
sVBerton Vineyard
p3454
I3482
sVMartin
p3455
I3483
sVTrius
p3456
I3484
sVJuliette Avril
p3457
I3485
sVMarques De Riscal
p3458
I3486
sVQuinta De Chocapalha
p3459
I3487
sVMoncaro
p3460
I3488
sVValle Andino
p3461
I3489
sVTwomey
p3462
I4024
sVChehalem
p3463
I3490
sVQuinta Vale D. Maria
p3464
I3491
sVCastillo De Monjardin
p3465
I3492
sVCascina Ballarin
p3466
I2729
sVRizzi
p3467
I3494
sVErrazuriz Ovalle
p3468
I3495
sVChangyu
p3469
I3496
sVLaird Family Estate
p3470
I3497
sVCaractere
p3471
I2982
sVSymington Family Estates
p3472
I3499
sVChateau Lamothe
p3473
I3500
sVBodegas Pinord
p3474
I396
sVStanton & Killeen
p3475
I3502
sVBaroncini
p3476
I393
sVPascual Toso
p3477
I3504
sVZilliken
p3478
I3505
sVTenuta San Guido
p3479
I653
sVL'Ecole No 41
p3480
I450
sVVilla Maria
p3481
I3508
sVLas Ninas
p3482
I411
sVEmmanuel Delicata
p3483
I417
sVAnselmi Giuseppe e Luigi
p3484
I3943
sVProduttori Del Barberesco
p3485
I3511
sVPrimavera
p3486
I3512
sVMichel Bouzereau
p3487
I3268
sVEgri Bikaver
p3488
I455
sVOrfila Vineyards
p3489
I3514
sVLou Miranda
p3490
I3516
sVDomaine Comte Georges de Vogues
p3491
I3518
sVRainoldi
p3492
I3519
sVFetzer
p3493
I3520
sVVinecol
p3494
I3521
sVAndeluna
p3495
I3522
sVVinas del Vero
p3496
I3523
sVJoseph Faiveley
p3497
I524
sVRaventos i Blanc
p3498
I3525
sVSaronsberg
p3499
I551
sVBerger
p3500
I3527
sVFranciscano
p3501
I560
sVCalem
p3502
I3529
sVSeidelberg
p3503
I1358
sVMusella
p3504
I3532
sVRosemount
p3505
I3533
sVBacalhoa
p3506
I3534
sVChateau Rauzan Segla
p3507
I596
sVMaison Arnoux & Fils
p3508
I3536
sVCosters Del Siurana
p3509
I3538
sVTenute Niccolai
p3510
I622
sVEos Estate
p3511
I4086
sVAegerter Jean Luc & Paul
p3512
I4032
sVRaimat
p3513
I3541
sVTrapiche
p3514
I3542
sVPerelada
p3515
I654
sVBadel
p3516
I1271
sVBarnett Vineyards
p3517
I3545
sVPax
p3518
I1878
sVBouchard Pere &amp; Fils
p3519
I3547
sVBarossa Valley Estate
p3520
I683
sVG.D. Vajra
p3521
I3549
sVBodega La Rural
p3522
I3550
sVFoncalieu
p3523
I3551
sVLa Croix Du Pin
p3524
I3552
sVSiduri
p3525
I3553
sVMontgras
p3526
I3186
sVPierpaolo Pecorari
p3527
I3555
sVDinastia Vivanco
p3528
I3556
sVAranleon
p3529
I726
sVPahlmeyer
p3530
I3558
sVAlbino Rocca
p3531
I3517
sVLouis M. Martini
p3532
I3560
sVMaryhill
p3533
I3561
sVTenuta Dell Ornellaia
p3534
I3562
sVGregor Kuonen Caveau De Salquenen
p3535
I3563
sVDi Lenardo
p3536
I3285
sVViu Manent
p3537
I3564
sVVicchiomaggio
p3538
I3565
sVMarchesi de' Frescobaldi
p3539
I3566
sVG.H. Mumm
p3540
I3567
sVSolabal
p3541
I3568
sVKWV
p3542
I1602
sVLe Macchiole
p3543
I3570
sVFranco Espanolas
p3544
I818
sVAmbra
p3545
I3607
sVSanti
p3546
I3572
sVVilla Jolanda
p3547
I3573
sVBaron Philippe De Rothschild
p3548
I3574
sVHendry
p3549
I3575
sVBodegas Volver
p3550
I3577
sVFuentespina
p3551
I861
sVCooper's Hawk
p3552
I3501
sVOtero Ramos
p3553
I3580
sVHalewood
p3554
I1293
sVAntonini Ceresa
p3555
I1941
sVVilla Matilde
p3556
I3583
sVLa Pauline
p3557
I3194
sVWolf Blass
p3558
I1436
sVRobledo Family
p3559
I3585
sVBohigas
p3560
I3586
sVAlma De Chile
p3561
I2691
sVBecker
p3562
I3588
sVSacchetto
p3563
I3589
sVLa Redonda
p3564
I3507
sVSteininger
p3565
I3591
sVChateau Brillette
p3566
I357
sVVilla Raiano
p3567
I3593
sVTodoroff
p3568
I3594
sVChateau Puech Haut
p3569
I3595
sVBodegas Palacio
p3570
I3596
sVHubert Lamy
p3571
I3597
sVTwo Oceans
p3572
I3598
sVMocali
p3573
I3816
sVVylyan
p3574
I731
sVWestend Estate
p3575
I3601
sVDominique Laurent
p3576
I3602
sVColterenzio Schreckbichl
p3577
I3603
sVCasa Ermelinda Freitas
p3578
I982
sVScheiblhofer
p3579
I3605
sVPatz & Hall
p3580
I3606
sVSanta Babara
p3581
I2221
sVCarta Vieja
p3582
I3608
sVMarkgraf Von Baden
p3583
I2072
sVJulian Chivite
p3584
I3609
sVIron Horse Vineyards
p3585
I1015
sVElizabeth Spencer
p3586
I487
sVWamakersvallei
p3587
I3612
sVBoccantino
p3588
I1280
sVVina Robles
p3589
I3614
sVPegoes
p3590
I3615
sVRusack
p3591
I3616
sVUnion Des Producteurs De Saint Emilion
p3592
I3617
sVJ. Moreau & Fils
p3593
I1049
sVSutter Home
p3594
I3619
sVCanti
p3595
I3620
sVBodegas Carrau
p3596
I1068
sVKenwood
p3597
I646
sVCasa Donoso
p3598
I3623
sVArcane
p3599
I3624
sVBarton &amp; Guestier
p3600
I2913
sVBorgo Molino
p3601
I3626
sVRichard Hamilton
p3602
I1096
sVHaderburg
p3603
I3628
sVBellavista
p3604
I3629
sVItalo Cescon
p3605
I3630
sVMission Bell
p3606
I3631
sVAirfield Estates
p3607
I3632
sVBarros Porto
p3608
I3855
sVLes Producteurs Reunis
p3609
I3633
sVTerra Tangra
p3610
I3634
sVGemma
p3611
I3635
sVGallo Family
p3612
I3636
sVLionel Dufour
p3613
I3637
sVAbacela
p3614
I3638
sVStormhoek
p3615
I3639
sVGhost Pines
p3616
I2696
sVCormons
p3617
I1183
sVAnne Amie
p3618
I3642
sVLuis Gurpegui Muga
p3619
I3643
sVBruno Giacosa
p3620
I1196
sVKourtaki
p3621
I1688
sVElderton
p3622
I3646
sVBodegas Juan Gil
p3623
I3647
sVDu Toitskloof
p3624
I3582
sVSineann
p3625
I3648
sVTrader Joe's
p3626
I3650
sVCasa Mayor
p3627
I3389
sVDelibori
p3628
I3651
sVFritz
p3629
I2222
sVTerre De Trinci
p3630
I1268
sVTestarossa
p3631
I3277
sVRosa Del Golfo
p3632
I3655
sVRaymond Vineyard & Cellar
p3633
I3656
sVBlack Sea Gold
p3634
I3657
sVBig House
p3635
I3771
sVTorrevento
p3636
I3658
sVTim Adams
p3637
I3659
sVSullivan
p3638
I3660
sVMichel Picard
p3639
I303
sVSalvalai
p3640
I1976
sVRegnard
p3641
I1351
sVBouchard Finlayson
p3642
I3664
sVMarinot Verdun
p3643
I3665
sVAllegro
p3644
I3666
sVMiolo
p3645
I3667
sVPeller Estates
p3646
I3668
sVCusumano
p3647
I2790
sVLauriers
p3648
I3670
sVAnselmann
p3649
I3671
sVCockburns
p3650
I2705
sVRoux Pere Et Fils
p3651
I3673
sVChateau d'Arche
p3652
I3674
sVMauro
p3653
I864
sVSt Supery
p3654
I2651
sVApaltagua
p3655
I3676
sVToro Albala
p3656
I3677
sVBernard Schwach
p3657
I3678
sVClos Du Val
p3658
I3679
sVMonte Zovo
p3659
I1811
sVCorte Aleardi
p3660
I3359
sVRecchia
p3661
I3681
sVTesco
p3662
I3682
sVZilzie
p3663
I3683
sVPeju
p3664
I1445
sVSieur D Arques
p3665
I3685
sVDomini Veneti
p3666
I3686
sVBremerton
p3667
I3687
sVVigneti del Vulture
p3668
I3688
sVRancho Sisquoc
p3669
I3689
sVVincon Vrancea
p3670
I1485
sVCharles Melton
p3671
I3691
sVPetra
p3672
I3692
sVFinca Sophenia
p3673
I3693
sVOchoa
p3674
I3694
sVThomas Fogarty
p3675
I3695
sVOrlando Abrigo
p3676
I3371
sVPlansel
p3677
I2077
sVCharles Heidsieck
p3678
I1534
sVAurora
p3679
I1539
sVBellevue La Foret
p3680
I3700
sVVan Loveren
p3681
I3701
sVChateau Grand Mayne
p3682
I3702
sVMoillard Grivot
p3683
I3703
sVHRM Rex Goliath
p3684
I3705
sVSol De Chile
p3685
I3706
sVMarchesi Di Gresy
p3686
I3707
sVPelissero
p3687
I3708
sVDomaine Paul Jaboulet Aine
p3688
I1586
sVPaulo Laureano
p3689
I3710
sVMikulov
p3690
I3711
sVElio Filippino
p3691
I3712
sVRockford
p3692
I1597
sVTorii Mor
p3693
I3714
sVCasa Vinicola Bennati
p3694
I3715
sVLaunois Pere & Fils
p3695
I3716
sVSte Chapelle
p3696
I1615
sVPerrier Jouet
p3697
I1618
sVMillbrook Estate
p3698
I3719
sVCarpineto
p3699
I3720
sVDomenico Clerico
p3700
I3721
sVSequoia Grove
p3701
I2218
sVJean Bouchard
p3702
I1653
sVDomaine Carneros
p3703
I4030
sVLeonardo Da Vinci
p3704
I3724
sVFontodi
p3705
I3725
sVAlicanto
p3706
I3726
sVLa Vis
p3707
I1690
sVCotnari
p3708
I3084
sVCarinae
p3709
I3729
sVFrog's Leap
p3710
I3730
sVArtadi
p3711
I3731
sVBaron Edmond De Rothschild
p3712
I2816
sVEncostas De Estremoz
p3713
I3732
sVThe Other Guys
p3714
I3733
sVCastoro
p3715
I3734
sVBalbo
p3716
I3467
sVThurston Wolfe
p3717
I3735
sVLouis Eschenauer
p3718
I570
sVBodegas Callia
p3719
I3737
sVCharles Thomas
p3720
I692
sVMichel Juillot
p3721
I3739
sVLa Lecciaia
p3722
I3493
sVCa Dei Frati
p3723
I3740
sVDon Manuel Villafane
p3724
I3741
sVPortobello
p3725
I3742
sVTerenzi
p3726
I3743
sVMommessin
p3727
I3744
sVSan Valentino
p3728
I3745
sVDomaine Martin
p3729
I3746
sVMorin Pere Fils
p3730
I3747
sVArgiano
p3731
I1641
sVChateau Cheval Blanc
p3732
I3749
sVEmrich Schonleber
p3733
I3750
sVCaves Sao Domingos
p3734
I3751
sVCave De Turckheim
p3735
I3752
sVCodorniu
p3736
I3753
sVDans Nos Chais
p3737
I2633
sVJoseph Burrier
p3738
I1894
sVChateau Pesquie
p3739
I3756
sVMare Magnum
p3740
I1895
sVRoquebrun
p3741
I3758
sVCollin Bourisset
p3742
I3759
sVArione
p3743
I1911
sVCruz
p3744
I3761
sVCline Cellars
p3745
I3762
sVChateau La Tour Blanche
p3746
I2715
sVChateau Tamagne
p3747
I3764
sVSolopaca
p3748
I3765
sVBeaulieu Vineyards
p3749
I3766
sVTbilvino
p3750
I3767
sVBalatonboglar
p3751
I3768
sVEl Emperador
p3752
I2926
sVJose L. Ferrer
p3753
I3770
sVAlamos
p3754
I2718
sVSan Huberto
p3755
I3772
sVBolla
p3756
I3773
sVChateau Pontet Canet
p3757
I3774
sVWeinhaus Ranke
p3758
I3775
sVJeromin
p3759
I3383
sVSegura Viudas
p3760
I1832
sVJoh. Jos. Christoffel Erben
p3761
I3777
sVDomaine Alain Michelot
p3762
I4073
sVCoyotes Run Estate
p3763
I3780
sVDopff Au Moulin
p3764
I3781
sVRudolf Muller
p3765
I3782
sVElio Grasso
p3766
I3384
sVCasas Patronales
p3767
I3784
sVArgiolas
p3768
I3785
sVBrancaia
p3769
I3786
sVJustin Vineyards
p3770
I2038
sVEsporao
p3771
I3788
sVProsper Maufoux
p3772
I3789
sVL. A. Cetto
p3773
I3790
sVFrederic Magnien
p3774
I2680
sVSanta Vitoria
p3775
I3792
sVE Garantita
p3776
I1332
sVTinto Pesquera
p3777
I3794
sVTerra Noble
p3778
I3795
sVOvergaauw
p3779
I3796
sVStonehedge
p3780
I3798
sVChateau Clinet
p3781
I3799
sVSitios De Bodegas
p3782
I3800
sVLouis Latour
p3783
I2092
sVChampagne Lanson
p3784
I3802
sVPetrolo
p3785
I3803
sVLa Croisade
p3786
I2115
sVPiccini
p3787
I3805
sVJoan Raventos Rosell
p3788
I3723
sVChateau Bellevue
p3789
I3326
sVKutman
p3790
I4078
sVFelix Callejo
p3791
I3808
sVTriacca
p3792
I2064
sVWeingut Keller
p3793
I3810
sVLes Petites
p3794
I3662
sVTurckheim
p3795
I1505
sVWeinlaubenhof Kracher
p3796
I3321
sVCascina Cucco
p3797
I3814
sVBarkan
p3798
I3815
sVAraldica
p3799
I3797
sVKlipfel
p3800
I2183
sVBastide
p3801
I3818
sVPierre Gaillard
p3802
I3819
sVTinajas
p3803
I2719
sVChateau Carbonnieux
p3804
I3821
sVMurfatlar Romania
p3805
I3738
sVCrouseilles
p3806
I3822
sVMiner
p3807
I3823
sVAltesino
p3808
I3654
sVWilliam Cole
p3809
I3824
sVCantina Kellerei Terlan
p3810
I3825
sVMasseria Altemura
p3811
I3387
sVRenato Ratti
p3812
I3827
sVHans Lang
p3813
I3828
sVCavalleri
p3814
I3829
sVDomaine de la Romanee Conti
p3815
I3830
sVTemplarske
p3816
I2287
sVChateau Boyd Cantenac
p3817
I3832
sVChateau Latour
p3818
I3833
sVChateau La Mission Haut Brion
p3819
I4082
sVBarone Ricasoli
p3820
I3834
sVLa Scolca
p3821
I3835
sVWoodstock
p3822
I4006
sVDomaine Santa Duc
p3823
I3836
sVMatua Valley
p3824
I3837
sVCave De Lugny
p3825
I3838
sVMarques De Monistrol
p3826
I3839
sVMurphy   Goode
p3827
I2083
sVLa Gioiosa
p3828
I2349
sVPerrot Minot
p3829
I2354
sVExcelsior
p3830
I2257
sVCorte Lenguin
p3831
I3844
sVDomaine Armelle et Bernard Rion
p3832
I3845
sVMarques de Riscal
p3833
I2373
sVExtremena
p3834
I3644
sVAbel Pinchard
p3835
I3848
sVCaduceus
p3836
I3849
sVVineland Estates
p3837
I3121
sVQuinta Do Crasto
p3838
I3851
sVMitchell
p3839
I3852
sVUnion Des Viticulteurs De Chablis
p3840
I3391
sVTorbreck
p3841
I3854
sVTerredora
p3842
I2519
sVDemetria
p3843
I3856
sVLombardo
p3844
I3857
sVFavaios
p3845
I3858
sVScarborough
p3846
I3859
sVLes Aphillanthes
p3847
I3860
sVSan Giovanni
p3848
I3861
sVSurazo
p3849
I3862
sVTulip
p3850
I3863
sVIl Poggio
p3851
I3864
sVMarc Colin &amp; Fils
p3852
I3865
sVSavanha
p3853
I3866
sVCarmen
p3854
I1106
sVRobert Sinskey Vineyards
p3855
I3868
sVCarmel
p3856
I1143
sVGrandes Vinos y Vinedos
p3857
I3870
sVPezzi King
p3858
I3871
sVCharles Baur
p3859
I3872
sVHart
p3860
I2725
sVScotchmans Hill
p3861
I3873
sVOlivier Leflaive
p3862
I3874
sVPierro
p3863
I3875
sVNicolas Feuillatte
p3864
I3876
sVTedeschi
p3865
I2540
sVBotalcura
p3866
I2051
sVJulia
p3867
I3879
sVFaustino Rivero Ulecia
p3868
I1368
sVJakob Gerhardt
p3869
I3881
sVFairhills
p3870
I3882
sVAtamisque
p3871
I2009
sVB.R. Cohn
p3872
I2575
sVCarlisle
p3873
I3885
sVNovelty Hill
p3874
I3886
sVChateau Durfort Vivens
p3875
I3515
sVPaulinshof
p3876
I2598
sVJose Maria da Fonseca
p3877
I3889
sVSoligo
p3878
I3890
sVChateau Palmer
p3879
I3891
sVMichel Frantz
p3880
I3892
sVSant Sadurni d'Anoia
p3881
I3893
sVMumm Napa
p3882
I3894
sVChateau des Charmes
p3883
I3290
sVJean Biecher
p3884
I3896
sVMaris
p3885
I4088
sVHector Stagnari
p3886
I4061
sVGimenez Mendez
p3887
I2986
sVFrancois Gerbet
p3888
I3897
sVEmiliana Vinyards
p3889
I1552
sVTerre Siciliane
p3890
I3899
sVVan Volxem
p3891
I4090
sVNittnaus
p3892
I3131
sVPeirano Estate
p3893
I3901
sVBergevin Lane Vineyards
p3894
I3902
sVSmith Woodhouse
p3895
I3903
sVDutton Estate
p3896
I3904
sVSpadafora
p3897
I3905
sVCennatoio
p3898
I3906
sVCastano
p3899
I3907
sVChateau Souverain
p3900
I3908
sVMontinore Estate
p3901
I3909
sVCustoza
p3902
I3910
sVTorre Delle Grazie
p3903
I3911
sVChamisal Vineyards
p3904
I3912
sVGianni Gagliardo
p3905
I3913
sVBodegas Salentein
p3906
I3914
sVMontesquieu
p3907
I3915
sVHeartland
p3908
I3916
sVDe Bortoli
p3909
I3917
sVQuinta da Romaneira
p3910
I3918
sVRamos Pinto
p3911
I3919
sVMoletto
p3912
I3920
sVJean Grivot
p3913
I3921
sVGiacomo Fenocchio
p3914
I3922
sVIndomita
p3915
I2859
sVOwen Roe
p3916
I3924
sVCamberley
p3917
I2879
sVPaul Pillot
p3918
I3926
sVTamar Ridge
p3919
I2886
sVFetzer Vineyards
p3920
I3928
sVParadise Ridge
p3921
I3929
sVArdechois
p3922
I3930
sVLa Chasse du Pape
p3923
I3697
sVCasa Santes Lima
p3924
I3931
sVQuails' Gate Estate Winery
p3925
I3932
sVFreemark Abbey
p3926
I3933
sVKosta Brown
p3927
I3934
sVCade
p3928
I3935
sVVintjs
p3929
I3936
sVSteenberg
p3930
I3937
sVV. Sattui
p3931
I3938
sVSchafer Frohlich
p3932
I2170
sVMount Palomar
p3933
I3940
sVMichel Gonet
p3934
I3941
sVProvins Valais
p3935
I3942
sVVillabella
p3936
I3641
sVDurbacher
p3937
I3944
sVCellier Des Chartreux
p3938
I3945
sVBoland Cellar
p3939
I3946
sVIl Cavaliere
p3940
I3947
sVHenri Cruchon
p3941
I3948
sVPierre Riviere
p3942
I3949
sVCoopers Hawk
p3943
I2533
sVMas Martinet
p3944
I3951
sVBarth
p3945
I3952
sVHenry Of Pelham
p3946
I3953
sVAlex Gambal
p3947
I3954
sVJean Becker
p3948
I3955
sVChateau Maison Blanche
p3949
I3061
sVHetszolo
p3950
I3957
sVMiguel Torres
p3951
I3958
sVNico Lazaridi
p3952
I3959
sVSogevinus
p3953
I3960
sVMeridian
p3954
I941
sVArnaldo Caprai
p3955
I3962
sVCastello Di Ama
p3956
I3963
sVMichel Schneider
p3957
I4049
sVLuis Segundo Correas
p3958
I766
sVQuinta Santa Eufemia
p3959
I3964
sVMontana
p3960
I3965
sVChateau de Fesles
p3961
I3966
sVNegro Angelo & Figli
p3962
I3967
sVCamille Giroud
p3963
I1100
sVOliveda
p3964
I3969
sVOddero
p3965
I3680
sVFouassier
p3966
I2026
sVLivon
p3967
I1935
sVDomaine Taupenot Merme
p3968
I3972
sVJohanneshof Reinisch
p3969
I3973
sVSchroder &amp; Schyler
p3970
I3974
sVHenri Martin
p3971
I2205
sVFrancesco Minini
p3972
I3976
sVVinakoper
p3973
I3977
sVVan loveren
p3974
I2637
sVBouza
p3975
I3979
sVBurgerspital
p3976
I2028
sVBouchard Pere & Fils
p3977
I3980
sVLuis Felipe Edwards
p3978
I3982
sVAngels Gate
p3979
I3251
sVChiusa Grande
p3980
I3984
sVSainte Anne
p3981
I3985
sVSelby
p3982
I3986
sVChateau Saint Pierre
p3983
I3987
sVJurtschitsch Sonnhof
p3984
I2429
sVJ. Hofstatter
p3985
I3989
sVCastello Di Roncade
p3986
I3291
sVSevenhill
p3987
I2744
sVThummerer
p3988
I3887
sVDel Fin Del Mundo
p3989
I3992
sVGimenez Riili
p3990
I3993
sVStagecoach
p3991
I3994
sVMarchese Montefusco
p3992
I3995
sVMarques del Nevado
p3993
I3996
sVProduttori di Govone
p3994
I3997
sVGaribaldi
p3995
I3998
sVCasa Madero
p3996
I2709
sVCleebourg
p3997
I4000
sVDomaine Weinbach
p3998
I4001
sVGancia
p3999
I4002
sVFelix Solis
p4000
I4003
sVDe La Tour
p4001
I4005
sVBarboursville
p4002
I3154
sVMamete Prevostini
p4003
I4007
sVCastellana
p4004
I4008
sVBeaumont
p4005
I4009
sVChateau les Tuileries
p4006
I3410
sVGeorge Duboeuf
p4007
I319
sVClos Pegase
p4008
I3035
sVCastellani
p4009
I779
sVVistamar
p4010
I4014
sVCrane Lake
p4011
I3441
sVThorin
p4012
I1906
sVCaves Alianca
p4013
I3457
sVDomaine Skouras
p4014
I3417
sVLa Cacciatora
p4015
I4019
sVPio Cesare
p4016
I3704
sVWeingut Rudolf Furst
p4017
I4021
sVR.H. Phillips
p4018
I4022
sVPoole's Rock
p4019
I4023
sVLungarotti
p4020
I1733
sVLalande
p4021
I4025
sVKrauthaker
p4022
I2396
sVTherapy
p4023
I4027
sVChampagne Pol Roger
p4024
I4028
sVLindeman's
p4025
I4029
sVDomaine Laroche
p4026
I4004
sVVecchia
p4027
I4031
sVVereinigte Hospitien
p4028
I3540
sVMeerendal
p4029
I4033
sVLa Tunella
p4030
I4034
sVBecker Landgraf
p4031
I4035
sVBernard Magrez
p4032
I4036
sVDezzani
p4033
I4037
sVCasarena
p4034
I3413
sVDeLille Cellars
p4035
I4039
sVNicholas Potel
p4036
I3778
sVSan Antonio
p4037
I4041
sVVecchia Torre
p4038
I4042
sVJoseph Cattin
p4039
I2603
sVBoekenhoutskloof
p4040
I4044
sVPorto Calem
p4041
I3099
sVBodegas Vega Sicilia
p4042
I4046
sVLa Croix
p4043
I4047
sVFontana
p4044
I4048
sVFleur Du Cap
p4045
I1101
sVMorey Coffinet
p4046
I4050
sVCastel
p4047
I4051
sVMichele Castellani
p4048
I1843
sVAlain Jaume
p4049
I2374
sVTahbilk
p4050
I4054
sVTerraMater
p4051
I4055
sVFilgueira
p4052
I4056
sVPaul Hobbs
p4053
I4057
sVChateau Caillou
p4054
I647
sVDanie De Wet
p4055
I4059
sVAngoris
p4056
I2044
sVMarimar Estate
p4057
I3423
sVFalesco
p4058
I3149
sVSottano
p4059
I3472
sVDevil's Lair
p4060
I2601
sVChantet Blanet
p4061
I4063
sVRidge Vineyards
p4062
I4064
sVWente
p4063
I4065
sVKrems
p4064
I4066
sVTasca D'Almerita
p4065
I1924
sVChateau de Fieuzal
p4066
I4068
sVR.Lopez De Heredia
p4067
I4069
sVVon Stiehl
p4068
I4070
sVFranschhoek Cellar
p4069
I4071
sVLavaque
p4070
I4072
sVHartford Court
p4071
I3779
sVSantero
p4072
I4075
sVMoss Wood
p4073
I4076
sVMalivoire
p4074
I4077
sVDr. Loosen
p4075
I3807
sVOffley
p4076
I4079
sVMurfatlar
p4077
I2443
sVMarrenon
p4078
I4081
sVRocca Dei Forti
p4079
I2795
sVChateau La Dominique
p4080
I4083
sVHaux
p4081
I4084
sVDuck Pond
p4082
I4126
sVHenschke
p4083
I4085
sVVeglio
p4084
I3429
sVKopke
p4085
I500
sVMichael David
p4086
I4087
sVVina Requingua
p4087
I2793
sVPico Maccario
p4088
I3430
sVBadischer
p4089
I3900
sVMcWilliam's
p4090
I4091
sVCamille Cayran
p4091
I4092
sVPinord
p4092
I4093
sVTurasan
p4093
I3877
sVDuca Di Salaparuta
p4094
I4094
sVLeeuin Estate
p4095
I4095
sVSperi
p4096
I4128
sVRemstalkellerei
p4097
I4097
sVBartenura
p4098
I4098
sVChateau Dauzac
p4099
I2052
sVChateau Cantemerle
p4100
I2919
sVJonata
p4101
I4101
sVWarburn
p4102
I4102
sVBodegas Contador
p4103
I4103
sVXanadu
p4104
I4104
sVRomain Duvernay
p4105
I4105
sVBerry Bros & Rudd
p4106
I4106
sVThe Hess Collection
p4107
I4107
sVCasa Nueva
p4108
I4108
sVCave De Tain
p4109
I4109
sVDomaine Cazes
p4110
I269
sVCharles Smith
p4111
I4111
sVVina Undurraga
p4112
I4112
sVRolf Binder
p4113
I4132
sVMelville
p4114
I4113
sVJoseph Filippi
p4115
I4114
sVJaffelin
p4116
I4115
sVBoutinot
p4117
I1290
sVGirard
p4118
I4117
sVFerrari
p4119
I2952
sVBurgess Cellars
p4120
I3888
sVIlluminati
p4121
I1694
sVChateau de Chantegrive
p4122
I4134
sVFolie A Deux
p4123
I4121
sVCiu Ciu
p4124
I722
sVSt.Michael Eppan
p4125
I4123
sVCricova
p4126
I1514
sVField Stone
p4127
I4125
sVMarenco
p4128
I3433
sVEscorihuela Gascon
p4129
I1919
sVSumarroca
p4130
I4096
sVRemy Pannier
p4131
I2055
sVFoss Marai
p4132
I4130
sVBodega Dante Robino
p4133
I4131
sVRock Wall
p4134
I3990
sVMarsovin
p4135
I4133
sVValsanzo
p4136
I4120
s.