(dp0
VBriar Ridge
p1
I4131
sVBeau Site
p2
I1
sVBeaumont Des Crayeres
p3
I2
sVVignoble Dampt
p4
I3
sVReichsgraf Von Plettenberg
p5
I4
sVAdega Das Mouras
p6
I5
sVBoutique
p7
I6
sVChateau de Lugagnac
p8
I2808
sVDorrien Estate
p9
I3535
sVChateau Tour de Pez
p10
I7
sVBegali Lorenzo
p11
I2108
sVBeauvillon
p12
I63
sVWeingut Gebruder Ludwig
p13
I10
sVFattori
p14
I11
sVWinter
p15
I2110
sVMate
p16
I13
sVBernard Delagrange
p17
I14
sVLa Fiera
p18
I15
sVPavelka
p19
I3537
sVGianni Voerzio
p20
I2221
sVChartogne Taillet
p21
I16
sVSassarini
p22
I17
sVSteffen Prum
p23
I18
sVPalinda
p24
I19
sVManduria
p25
I1521
sVQuerceto
p26
I21
sVLaus
p27
I4089
sVZorzettig
p28
I22
sVAdega Cooperativa de Redondo
p29
I2813
sVArrow Creek
p30
I174
sVBonazzi Dario E Fabio
p31
I25
sVMcNab Ridge Winery
p32
I4132
sVReuter Dusemund
p33
I27
sVKovacs
p34
I28
sVFanti San Filippo
p35
I29
sVVina Laguna
p36
I30
sVChateau Pradeau
p37
I31
sVBellenda Sas
p38
I32
sVGysler
p39
I228
sVHeimann
p40
I34
sVComm. G. B. Burlotto
p41
I35
sVChateau Malartic Lagraviere
p42
I242
sVHenri Maire
p43
I4004
sVPrieure
p44
I39
sVWeingut Selbach Oster
p45
I877
sVThomas
p46
I42
sVDon Arturo
p47
I43
sVViberti Giovanni
p48
I44
sVDomaine Begude
p49
I45
sVMontmirail
p50
I46
sVChateau Marquis d'Alesme
p51
I47
sVAfton Mountain Vineyard
p52
I48
sVThe Pines
p53
I49
sVTwo Mountain Winery
p54
I50
sVBachellery
p55
I52
sVDomaine Bonneau Du Martray
p56
I54
sVBuoncristiani
p57
I55
sVDomaine Hubert Lignier
p58
I56
sVMiani
p59
I57
sVVillanova
p60
I58
sVPetrucco
p61
I59
sVChateau La Canorgue
p62
I61
sVChemin Des Papes
p63
I62
sVKurt Hain
p64
I9
sVNorman Hardie
p65
I64
sVDomaine Hering
p66
I65
sVL Ameillaud
p67
I2823
sVReyneke
p68
I67
sVMassucco
p69
I68
sVYaldara
p70
I1400
sVRonchi San Giuseppe
p71
I70
sVLongboard Vineyards
p72
I71
sVVigilance
p73
I72
sVCastello Di Querceto
p74
I74
sVCantina Di Negrar
p75
I75
sVEagles Trace
p76
I76
sVDes Forges
p77
I77
sVRemi Jobard
p78
I78
sVLumos
p79
I79
sVAgriturismo
p80
I81
sVOlivares
p81
I82
sVAlfred Gratien
p82
I83
sVCiabot Berton
p83
I515
sVVeuve Amiot
p84
I85
sVSonata
p85
I86
sVBosio
p86
I88
sVNicolis Angelo E Figli
p87
I89
sVJunta Momentos
p88
I91
sVArabella
p89
I92
sVMichael Florentino
p90
I93
sVLa Roche
p91
I94
sVJ. Lassalle
p92
I95
sVDomaine Monpertuis
p93
I96
sVCastellore
p94
I97
sVGnekow Family
p95
I2123
sVDomaine Louis Moreau
p96
I99
sVRoot 1
p97
I100
sVChateau Tour de Mirambeau
p98
I101
sVBerry Bros &amp; Rudd
p99
I102
sVLa Granja
p100
I103
sVCabutto
p101
I105
sVLe Tobele
p102
I106
sVJean Francois Merieau
p103
I107
sVBrusset
p104
I108
sVWeingut Heinrich Vollmer
p105
I109
sVSuavia
p106
I110
sVCarmine Granata
p107
I111
sVKlein
p108
I112
sVGrimaldi Luigino
p109
I113
sVPost Familie Vineyards
p110
I114
sVMure
p111
I115
sVCave Kouroum
p112
I116
sVMantra
p113
I117
sVLa Emperatriz
p114
I3512
sVRegis Bouvier
p115
I715
sVJim Clendenen
p116
I120
sVVini Viti Vinci
p117
I121
sVFreigut Thallern
p118
I122
sVIm Barrique Gereift
p119
I757
sVGrand Moulin
p120
I2198
sVLavau
p121
I3135
sVQuarisa
p122
I773
sVMorey Blanc
p123
I126
sVAuntsfield
p124
I127
sVThree
p125
I128
sVVondeling
p126
I129
sVJean Dumont
p127
I130
sVVipavska Dolina
p128
I131
sVCastello Di Tagliolo
p129
I132
sVSorbara
p130
I133
sVBaywood
p131
I134
sVPrejean
p132
I2837
sVDomaine Maume
p133
I2134
sVMeursault
p134
I138
sVParkers Estate
p135
I139
sVViljoensdrift
p136
I140
sVFreiherr Langwerth Von Simmern
p137
I141
sVHandcraft
p138
I142
sVGran Legado
p139
I143
sVVenta La Ossa
p140
I144
sVHestan
p141
I145
sVWinzerhof Thorle
p142
I41
sVFranciacorta
p143
I147
sVHerdade Do Rocim
p144
I151
sVLe Carline
p145
I152
sVFrittmann
p146
I153
sVCapuano Ferreri
p147
I154
sVCa Montini
p148
I155
sVMarichal
p149
I156
sVAnta Banderas
p150
I157
sVNiel Joubert
p151
I2137
sVAlbet I Noya
p152
I159
sVEfeste
p153
I161
sVCalona Vineyards
p154
I162
sVPatrick & Christophe Bonnefond
p155
I163
sVLugon
p156
I164
sVAlpha Zeta
p157
I3152
sVDavid Hill
p158
I165
sVEnkidu
p159
I166
sVStrub
p160
I2139
sVChateau Le Pin
p161
I168
sVFernandez
p162
I1043
sVHermanos Perez Pascuas
p163
I170
sVCa Delle Rose
p164
I3487
sVEl Enemigo
p165
I173
sVOak Mountain
p166
I24
sVLarrivet Haut Brion
p167
I0
sVBodega Patritti
p168
I176
sVVilla Molino
p169
I177
sVCK Mondavi
p170
I3563
sVChateau Mercian
p171
I179
sVVinas Del Cenit
p172
I2142
sVDomaine de Piaugier
p173
I181
sVZontes Footstep
p174
I182
sVPonte Da Barca
p175
I183
sVPoggio San Polo
p176
I1418
sVBernardus Winery
p177
I185
sVVally Of The Moon
p178
I187
sVChateau De Lisse
p179
I188
sVCruzares
p180
I190
sVChanton
p181
I191
sVAlbert Hertz
p182
I192
sVDomaine du Chene
p183
I1197
sVPaul Kubler
p184
I194
sVDominio De Atauts
p185
I195
sVBruni
p186
I196
sVCaves Aliana
p187
I678
sVCantina La Salute
p188
I198
sVPromesa
p189
I3788
sVOberon
p190
I2141
sVRoux Pere &amp; Fils
p191
I2146
sVBoas Quintas
p192
I202
sVPucara
p193
I3568
sVFamille Picard
p194
I2852
sVCapcanes
p195
I204
sVThirty Bench
p196
I205
sVTiberio
p197
I1283
sVWilly Gisselbrecht
p198
I552
sVCiavolich
p199
I4209
sVBlack Hills Estate Winery
p200
I209
sVChateau La Gordonne
p201
I210
sVLe Colline Dei Filari
p202
I211
sVPunta Nogal
p203
I212
sVDal Maso
p204
I213
sVChateau de Reignac
p205
I214
sVArgentiera
p206
I215
sVSenorio de Nava
p207
I1328
sVCasato Dei Medici Riccardi
p208
I217
sVAiola
p209
I218
sVSimcic
p210
I219
sVBrothers In Arms
p211
I220
sVChateau Anthonic
p212
I221
sVSan Giuliano
p213
I222
sVMGM Mondo del Vino
p214
I1424
sVVal de Loire
p215
I225
sVFrederic Lornet
p216
I226
sVCanneta
p217
I2855
sVWine Man
p218
I208
sVLost Angel
p219
I1201
sVDomaine Remi Jobard
p220
I231
sVBuil & Gine
p221
I233
sVMandala
p222
I1428
sVEstafania
p223
I236
sVMaxwell
p224
I237
sVLamblin &amp; Fils
p225
I238
sVTenuta Delle Terre Nere
p226
I239
sVTarara
p227
I240
sVGralyn Estate
p228
I241
sVSanta Monte Cristo
p229
I246
sVChateau Haut Bergey
p230
I248
sVCastello di Gabbiano
p231
I272
sVRui Roboredo Madeira
p232
I789
sVBaglio del Cristo di Campobello
p233
I250
sVDufouleur Pere &amp; Fils
p234
I252
sVHalter Ranch
p235
I1432
sVChateau Franc Mayne
p236
I255
sVTolo
p237
I256
sVTierra Del Fuego
p238
I258
sVDomaine Francois Carillon
p239
I3258
sVBroadbent
p240
I260
sVThe Crusher
p241
I3678
sVJose Pariente
p242
I262
sVHambacher Schlob
p243
I263
sVLaubade
p244
I264
sVChateau Ste Michelle
p245
I265
sVRubino
p246
I266
sVFleury Estate
p247
I267
sVPalmaz
p248
I268
sVBeck
p249
I269
sVParaiso
p250
I270
sVTorre Rosazza
p251
I271
sVStephen Vincent
p252
I273
sVLarchago
p253
I4031
sVVitanza
p254
I2862
sVZanotto
p255
I276
sVQuaderna Via
p256
I277
sVLadera
p257
I279
sVPerazzeta
p258
I280
sVMc Manis
p259
I281
sVCaves Dietrich et Fils
p260
I282
sVTorresella
p261
I283
sVDorrien
p262
I284
sVDominio De La Vega
p263
I285
sVMorella
p264
I2864
sVRemy Ferbras
p265
I288
sVCave Vinicole A Hunawihr Haut Rhin
p266
I289
sVTaillefer
p267
I290
sVSiam Winery
p268
I291
sVPage Springs Cellars
p269
I292
sVMorgante
p270
I293
sVMader
p271
I294
sVFritz Wabmer
p272
I2867
sVAndre et Michel Quenard
p273
I295
sVMarkus Altenburger
p274
I296
sVRapet Pere Et Fils
p275
I297
sVAgro de Bazan
p276
I298
sVPondera
p277
I299
sVStonehaven
p278
I4104
sVDonna Laura
p279
I301
sVDecordi
p280
I2869
sVChateau Bellerive
p281
I2160
sVKafer
p282
I303
sVOchotierras
p283
I304
sVWurttemberg
p284
I3107
sVWeingut Velich
p285
I1441
sVFranco Serra
p286
I307
sVLemelson Vineyards
p287
I3553
sVRemoissenet Pere & Fils
p288
I310
sVBallot Millot & Fils
p289
I311
sVMastroberardino
p290
I312
sVGobel Schleyer Erben
p291
I313
sVMacahapa
p292
I314
sVChateau Bessan
p293
I315
sVLa Vendemmia
p294
I317
sVCipressi
p295
I318
sVIl Calepino
p296
I319
sVDomaine Charles Thomas
p297
I321
sVTezza
p298
I322
sVVina Sastre (Bodegas Hermanos Sastre)
p299
I323
sVNicolas Joly
p300
I324
sVTerra Serena
p301
I325
sVBoeri Alfonso
p302
I4067
sVChateau Grand Jean
p303
I326
sVTelavi
p304
I3980
sVChantecotes
p305
I328
sVEl Villar
p306
I2429
sVToneles
p307
I329
sVMoio
p308
I330
sVCloud Break
p309
I331
sVCarl Jung
p310
I333
sVFattoria Selvapiana
p311
I334
sVConquelicot
p312
I335
sVBohrmann
p313
I336
sVGCF
p314
I337
sVSeaview
p315
I338
sVMontepeloso
p316
I339
sVFree Run Cellars
p317
I2878
sVClos Henri
p318
I3431
sVTrevor Jones
p319
I341
sVJurancon
p320
I342
sVLouis Chavron
p321
I343
sVBodegas Franco Espanolas
p322
I344
sVBellefontaine
p323
I345
sVMontaudon
p324
I347
sVLa Compagnie Rhodanienne
p325
I348
sVBrunel De La Gardine
p326
I349
sVEmeve
p327
I350
sVDomaine de L'Arlot
p328
I351
sVGassier
p329
I352
sVNigl
p330
I353
sVBriar Creek Cellars
p331
I354
sVLizzano
p332
I1726
sVChassagne Montrachet
p333
I4115
sVVinas Del Mar
p334
I356
sVMiravalle
p335
I357
sVWeinland Rheingau
p336
I358
sVPeconic Bay
p337
I1453
sVHofer
p338
I360
sVLe Torri
p339
I361
sVChateau St. Didier Parnac
p340
I362
sVMachiavelli
p341
I364
sVChais
p342
I365
sVLake Breeze Vineyards
p343
I366
sVThe Four Graces
p344
I367
sVDi Maremma
p345
I1455
sVFernando Remirez De Ganuza
p346
I369
sVChateau Pibran
p347
I370
sVOrange River Cellars
p348
I371
sVLa Hacienda
p349
I2394
sVAckerman
p350
I373
sVMastrojanni
p351
I374
sVCharles de Valliere
p352
I375
sVHerdade Da Calada
p353
I376
sVGarmendia
p354
I377
sVMerlin
p355
I1306
sVBliss
p356
I379
sVKiepersol
p357
I380
sVDanese
p358
I381
sVChateau L'Hermitage
p359
I382
sVBurlwood
p360
I383
sVDomaine Cordier Pere Et Fils
p361
I4183
sVVilla San Juliette
p362
I384
sVHalls
p363
I385
sVCreekside Estate Winery
p364
I386
sVAlderbrook
p365
I387
sVMarchesi Gondi
p366
I388
sVGrove Street
p367
I389
sVBodegas 1898 Ramon Roqueta
p368
I390
sVMartinushof
p369
I391
sVPaul Ginglinger
p370
I2188
sVJoseph Carr
p371
I393
sVChateau Ferran
p372
I394
sVConte Di Campiano
p373
I395
sVJean Yves Devevey
p374
I396
sVDomaine de Cristia
p375
I397
sVBodegas Penascal
p376
I171
sVLa Renaissance
p377
I500
sVPoggiotondo
p378
I400
sVDomaine Jean Marc Bouley
p379
I2886
sVCostadoro
p380
I402
sVKarlsmuhle
p381
I4020
sVYellowglen
p382
I403
sVFratta Pasini
p383
I405
sVTroon
p384
I406
sVAdria
p385
I3874
sVNicolaus
p386
I1462
sVCa Munari
p387
I409
sVLouis Hauller
p388
I411
sVVilla Medoro
p389
I412
sVLa Cave Du Connaisseur
p390
I413
sVVina San Esteban
p391
I80
sVStonehaus
p392
I415
sVShooting Star
p393
I416
sVChateau Loudenne
p394
I417
sVDog Point Vineyard
p395
I3967
sVR.L. Buller & Son
p396
I418
sVBlair Fox
p397
I419
sVUnio
p398
I420
sVLa Selva
p399
I421
sVLovico Suhindol
p400
I422
sVBachelet Monnot
p401
I423
sVJacques Bourguignon
p402
I424
sVColio
p403
I425
sVLongoria
p404
I426
sVTorley
p405
I427
sVLeza Garcia
p406
I428
sVMiguel Calatayud
p407
I429
sVMercier
p408
I430
sVNereo
p409
I431
sVDomaine Saint Gayan
p410
I3573
sVSpottswoode
p411
I432
sVLa Bastide Blanche
p412
I4137
sVVampire
p413
I433
sVMueller
p414
I3652
sVSimply Naked
p415
I434
sVSchloss Proschwitz
p416
I435
sVSorrentino
p417
I436
sVBruno Paillard
p418
I437
sVPrincipesco
p419
I438
sVCascina Degli Ulivi
p420
I439
sVBelgrano
p421
I440
sVBrewer Clifton
p422
I441
sVStony Brook
p423
I442
sVFenton Herriott
p424
I443
sVFontaine
p425
I444
sVThelema
p426
I2893
sVCaterina
p427
I445
sVWeingut Willi Schaefer
p428
I446
sVMaison Colin Seguin
p429
I447
sVRobert Skalli
p430
I448
sVDover Canyon
p431
I449
sVCosta di Bussia
p432
I450
sVRene Meyer
p433
I451
sVKent Rasmussen
p434
I452
sVAlain Voge
p435
I453
sVLar De Paula
p436
I454
sVDuchman Family Winery
p437
I1471
sVTalus
p438
I456
sVTownship 7
p439
I2192
sVRusso
p440
I512
sVCillar De Silos
p441
I458
sVJones
p442
I459
sVDierberg Vineyard
p443
I460
sVWise
p444
I461
sVBodegas Tradicion
p445
I462
sVMontlobre
p446
I464
sVLouis Bouillot
p447
I755
sVHeim
p448
I3538
sVLe Marchesine
p449
I466
sVHilltop
p450
I467
sVLa Reserve De Rafegue
p451
I468
sVRocca Bernarda
p452
I469
sVMasseria Trajone
p453
I470
sVBournett
p454
I3567
sVNorth Gate
p455
I3617
sVCasas Del Bosque
p456
I473
sVTrader Moon
p457
I474
sVChateau Le Grand Vostock
p458
I475
sVTerre Di Montelusa
p459
I476
sVLewis
p460
I477
sVOrofino Vineyards
p461
I478
sVSchlumberger
p462
I479
sVGustav Adolf Schmitt
p463
I480
sVPerez Barquero
p464
I481
sVEdi Simcic
p465
I482
sVDynasty
p466
I3139
sVDomaine Jean Guiton
p467
I484
sVRobert Groffier Pere & Fils
p468
I485
sVDonatsch
p469
I4145
sVAndis
p470
I487
sVFratelli Gancia
p471
I488
sVHerdade Dos Coelheiros
p472
I1477
sVRam's Gate
p473
I4099
sVArlaud
p474
I491
sVQuattrocchi
p475
I492
sVJacopo Biondi Santi
p476
I3210
sVCa Momi
p477
I494
sVNegociant Eleveur
p478
I3345
sVTwisted
p479
I495
sVEl Cidacos
p480
I496
sVMairena
p481
I1480
sVVetrere
p482
I498
sVDelhaize Group
p483
I499
sVVingaarden
p484
I3569
sVCampo Reale
p485
I502
sVDenis Boussey
p486
I3816
sVBrassfield Estate
p487
I3283
sVPierre & Remy Gauthier
p488
I504
sVDomaine La Croix Belle
p489
I506
sVMedievo
p490
I507
sVViticultori Associati Canicatti
p491
I508
sVChateau Mongravey
p492
I509
sVPrincipi Di Porcia
p493
I510
sVPrendina
p494
I511
sVCulemborg
p495
I2454
sVHester Creek
p496
I513
sVPalacio De La Vega
p497
I514
sVMonte Dos Cabacos
p498
I516
sVBodegas Victorianos
p499
I517
sVAntoine Barrier
p500
I518
sVMarjan Simcic
p501
I1098
sVLuca Ferraris
p502
I2199
sVVilla Di Mare
p503
I1375
sVMontecchio
p504
I522
sVDornier
p505
I3370
sVImbuko
p506
I524
sVMalatinszky
p507
I525
sVWeingut Winter
p508
I526
sVChurchills
p509
I527
sVOcchio Nero
p510
I2906
sVAlice White
p511
I529
sVBodegas Ignacio Marin
p512
I530
sVSanta Barbara
p513
I4078
sVChateau Grande Cassagne
p514
I531
sVKonigshof
p515
I532
sVAgricola Punica
p516
I533
sVFrancone
p517
I534
sVCasa Amada
p518
I1485
sVChateau Laborde
p519
I536
sVRappahannock Cellars
p520
I537
sVLouis Moreau
p521
I3627
sVBattle Of Bosworth
p522
I3889
sVChateau Peyrabon
p523
I2909
sVVanzini
p524
I540
sVGales
p525
I541
sVD'Art
p526
I542
sVLe Roc
p527
I3929
sVMiner Family Winery
p528
I544
sVPrimosic
p529
I1153
sVMarc Colin Et Fils
p530
I546
sVSelbach
p531
I547
sVVigna Dogarina
p532
I548
sVClos Marie
p533
I549
sVVasconcellos
p534
I550
sVThomas Freres
p535
I766
sVMad Housewife
p536
I553
sVBlack Box
p537
I1490
sVDomaine Forey Pere & Fils
p538
I558
sVL. Tramier & Fils
p539
I559
sVAdega De Pegoes
p540
I560
sVChateau Lucas
p541
I561
sVChateau Batailley
p542
I562
sVAnderson
p543
I563
sVAR.PE.PE
p544
I564
sVEric Rodez
p545
I565
sVVina Carpe Diem
p546
I566
sVJoseph Balland Chapuis
p547
I569
sVPhilippe Cambie
p548
I570
sVMoris Farms
p549
I571
sVCave Kientzheim Kaysersberg
p550
I572
sVThe Magnificent
p551
I1493
sVLanga
p552
I574
sVMaverick
p553
I575
sVLange
p554
I576
sVCollectif Des Barriques
p555
I2627
sVDomaine Mittnacht Freres
p556
I579
sVLas Nubes
p557
I580
sVFiegl
p558
I582
sVWeingut Erich et Walter Polz
p559
I583
sVMittelrhein
p560
I584
sVBouachon
p561
I851
sVFrench Cellars
p562
I2210
sVMischief And Mayhem
p563
I3637
sVChais Beaucairois
p564
I588
sVFall Line
p565
I589
sVBaron Knyphausen
p566
I592
sVPrince Stirbey
p567
I593
sVKettle Valley Winery
p568
I594
sVWeingut Juris
p569
I2544
sVDomaine Dominique Mugneret
p570
I595
sVThe Bergkelder
p571
I596
sVBisceglia
p572
I597
sVChateau De La Liquiere
p573
I598
sVMatthias Gaul
p574
I2919
sVChain of Ponds
p575
I600
sVAncien
p576
I601
sVWater Wheel
p577
I602
sVSaint Andre
p578
I603
sVKlaus Knobloch
p579
I3639
sVArtimino
p580
I33
sVLoomwine
p581
I607
sVSaint Jacques
p582
I2229
sVSkaersogaard
p583
I610
sVThevenet & Fils
p584
I611
sVBoizel
p585
I612
sVHenri Bourgeois
p586
I613
sVL Acciano
p587
I2492
sVVinas Pijoan
p588
I614
sVPietro Beconcini
p589
I615
sVDomaine Arlaud
p590
I616
sVChateau du Tertre
p591
I591
sVRed Knot
p592
I618
sVLa Rocca Vineyards
p593
I620
sVJerome Chezeaux
p594
I621
sVAltas Quintas
p595
I3820
sVCascina La Ghersa
p596
I2924
sVMartinez Corta
p597
I2925
sVNeblina
p598
I2220
sVVilmart
p599
I2816
sVTruro Vineyards of Cape Cod
p600
I626
sVSugarloaf Mountain Vineyard
p601
I2926
sVAlzania
p602
I628
sVAbeja
p603
I629
sVWoodlands Margaret River
p604
I3641
sVSieur D'Arques
p605
I631
sVJean Voisin
p606
I632
sVLaville
p607
I633
sVChateau de Lescours
p608
I634
sVAleksandrovic
p609
I3741
sVCondado de Haza
p610
I1501
sVSchloss Westerhaus
p611
I636
sVStoneboat Vineyards
p612
I189
sVMontanha
p613
I638
sVRavens Glenn
p614
I639
sVMalat
p615
I640
sVMontagne
p616
I641
sVMarchese Adorno
p617
I3333
sVGRM
p618
I642
sVStefano Mancinelli
p619
I3883
sVRichard
p620
I3642
sVWildhurst Vineyards
p621
I1133
sVWaters
p622
I645
sVJean Baptiste Adam
p623
I646
sVFrank Cornelissen
p624
I647
sVIndian Creek
p625
I648
sVAugust Briggs
p626
I649
sVVinisterra
p627
I650
sVTrisaetum
p628
I651
sVUccelliera
p629
I652
sVLake Sonoma
p630
I3457
sVHaut Sarpe
p631
I653
sVLe Chateau de Chamirey
p632
I654
sVVina Chocaclan
p633
I655
sVAtelie Tormentas
p634
I657
sVRodolfo Cosimi
p635
I658
sVSchweinhardt
p636
I659
sVRiverbench
p637
I660
sVLocorotondo
p638
I661
sVCastelio Romitorio
p639
I2227
sVCosta Di Bussia
p640
I664
sVPiovene Porto Godi
p641
I666
sVMasson Blondelet
p642
I667
sVGirolamo Dorigo
p643
I668
sVTy Caton
p644
I669
sVDenner Vineyards
p645
I671
sVThe Chapel Down
p646
I672
sVAdami
p647
I673
sVManzanita Creek
p648
I1413
sVEwald Gruber
p649
I848
sVChateau Pitray
p650
I675
sVDonna Olimpia 1898
p651
I676
sVSaint Marc
p652
I677
sVChateau La Gaffeliere
p653
I679
sVGalleano
p654
I680
sVCoto Redondo
p655
I681
sVTerre Di Valgrande
p656
I308
sVLes Freres Dubois
p657
I683
sVJean Degaves
p658
I684
sVHand Crafted
p659
I686
sVRed Truck
p660
I687
sVPago Los Balancines
p661
I688
sVDobbes Family Estate
p662
I689
sVChateau Senejac
p663
I690
sVArnot Roberts
p664
I691
sVCastello Di Gabiano
p665
I692
sVChateau Larmande
p666
I693
sVLa Rodeline
p667
I150
sVDamijan Podversic
p668
I695
sVLangoiran
p669
I2938
sVVinos Domecq
p670
I697
sVZweifel
p671
I698
sVHyot
p672
I699
sVMantlerhof
p673
I700
sVSzent Tamas
p674
I701
sVLes Vignes
p675
I702
sVBelvedere
p676
I4213
sVProidl
p677
I703
sVVillars Fontaine
p678
I704
sVGolan
p679
I705
sVDu Peloux
p680
I706
sVBelle Glos
p681
I707
sVEspiritu De Argentina
p682
I708
sVJonqueyres
p683
I709
sVJavelina Leap
p684
I710
sVMartinborough
p685
I711
sVHenry De Bellegarde
p686
I2235
sVCanyon Oaks
p687
I713
sVSavour Club
p688
I714
sVRochford
p689
I4154
sVTe Kairanga
p690
I716
sVCoastline
p691
I717
sVBosco Del Merlo
p692
I1752
sVRadio Coteau
p693
I720
sVAventino
p694
I2933
sVSandbanks
p695
I721
sVCantina del Vermentino Monti
p696
I722
sVPinzale
p697
I723
sVTerrenal
p698
I725
sVRaymond Huet
p699
I726
sVFramingham
p700
I1183
sVBudureasca
p701
I728
sVCesani
p702
I729
sVSparkman
p703
I3418
sVLa Garenne
p704
I730
sVIl Colle
p705
I731
sVForstreiter
p706
I3653
sVCrossroads
p707
I733
sVLingenfelder
p708
I734
sVFaust
p709
I735
sVStellenbosch Hills
p710
I737
sVR Wines
p711
I738
sVRenato Ferrero
p712
I739
sVTruchard Vineyards
p713
I1525
sVBodegas Frutos Villar
p714
I741
sVCastel Grisch
p715
I742
sVMarco Donati
p716
I743
sVRecaredo
p717
I744
sVTenute Cisa Asinari Dei Marchesi Di Gresy
p718
I745
sVBodegas Y Vinedos Valderiz
p719
I746
sVTanzberg Mikulov
p720
I747
sVDomaine des Varoilles
p721
I748
sVMalleret
p722
I749
sVThree Saints
p723
I750
sVMatarromera
p724
I751
sVThe Lane Vineyard
p725
I752
sVLa Calonica
p726
I3508
sVCa Del Vent
p727
I754
sVEdetaria
p728
I756
sVAnthill Farms
p729
I123
sVSaracina
p730
I1655
sVLangeTwins
p731
I758
sVMonteci
p732
I3659
sVErnesto Catena
p733
I760
sVGiachino
p734
I761
sVLartigue
p735
I762
sVTerre Di Verona
p736
I763
sVOriachovitza
p737
I3707
sVJumbo
p738
I2953
sVCastel Giocondo
p739
I765
sVFrancois Raquillet
p740
I551
sVPravis
p741
I767
sVBagrationi
p742
I768
sVArnoux Lachaux
p743
I3662
sVQuinta Do Carmo
p744
I769
sVChateau Le Grand Moulin
p745
I770
sVNarmada
p746
I3086
sVTrapezio
p747
I771
sVBodegas Age
p748
I772
sVLion Gri
p749
I1533
sVGeorgian Wines
p750
I775
sVR. Lopez De Heredia Vina Tondonia
p751
I2246
sVAnton Bauer
p752
I777
sVLuc Saint Roche
p753
I778
sVVenancio da Costa Lima
p754
I779
sVJoel Remy
p755
I780
sVLucien Muzard Fils
p756
I2305
sVAndre Lorentz
p757
I782
sVFiguero
p758
I783
sVFranco Molino
p759
I784
sVBellegarde
p760
I785
sVMichael Schafer
p761
I786
sVVriesenhof
p762
I788
sVCasale Dello Sparviero
p763
I4215
sVLlopart
p764
I1016
sVStar Lane Vineyard
p765
I790
sVClaudius
p766
I842
sVMas Du Soleilla
p767
I3971
sVMasson Dubois
p768
I792
sVVarna
p769
I793
sVAccornero
p770
I794
sVSportoletti
p771
I795
sVBindella
p772
I796
sVCorte Pavone
p773
I797
sVRosiere
p774
I798
sVNavarrsotillo
p775
I1540
sVPrinsi
p776
I3795
sVSeville Hill
p777
I801
sVVilla Teresa
p778
I802
sVSchlink Haus
p779
I803
sVLarentis
p780
I804
sVBotticelli
p781
I805
sVNueva
p782
I3667
sVChasseur
p783
I806
sVVenica & Venica
p784
I1073
sVBarons De Rothschild
p785
I808
sVGraziano
p786
I874
sVSwitchback Ridge
p787
I810
sVVilla Rosa
p788
I811
sVErnst Triebaumer
p789
I812
sVWillow Creek
p790
I2256
sVWinzerverein Deidesheim
p791
I814
sVDomaine Labranche Laffont
p792
I815
sVFattoria Cabanon
p793
I816
sVDans Nos Caves
p794
I817
sVDamiani Wine Cellars
p795
I819
sVMarques Del Puerto
p796
I820
sVItalia
p797
I821
sVDutch Henry Winery
p798
I822
sVHeymann Lowenstein
p799
I3670
sVPatton Valley Vineyard
p800
I824
sVLuna Beberide
p801
I826
sVMontes Ermos
p802
I827
sVKozlovic
p803
I828
sVBasel Cellars
p804
I1699
sVLouis Picamelot
p805
I830
sVHerdade Dos Grous
p806
I831
sVLe Corbinie
p807
I2280
sVScopetani
p808
I832
sVChateau Saint Hilaire
p809
I833
sVFlat Lake
p810
I834
sVAster
p811
I835
sVPatrick Fonjallaz
p812
I1033
sVHenriot
p813
I3671
sVForchir
p814
I838
sVPierre de Chabliseau
p815
I839
sVArmenia
p816
I840
sVCorbett Canyon
p817
I1056
sVVezzani
p818
I843
sVKirsten
p819
I1079
sVDomaine Philippe Girard
p820
I846
sVJean Francois
p821
I2262
sVVigne E Vini
p822
I849
sVCore
p823
I2263
sVValentin
p824
I1309
sVLilliano
p825
I852
sVMontebaco
p826
I853
sVCantina Montelliana
p827
I854
sVAfrican Rock
p828
I1135
sVLe Calendre
p829
I528
sVCape Grace
p830
I857
sVSan Marcos
p831
I807
sVRocher Cap De Rive
p832
I860
sVGartelmann
p833
I861
sVAnne Boecklin
p834
I862
sVPooley
p835
I863
sVGabbiano
p836
I864
sVBaxter
p837
I865
sVGran Copos Real
p838
I1199
sVAdegas Valminor
p839
I867
sVValentini
p840
I868
sVChantecaille
p841
I1218
sVFlat Rock Cellars
p842
I1221
sVBoccadigabbia
p843
I871
sVBaron Louis
p844
I2266
sVSpinifex
p845
I1239
sVLe Due Terre
p846
I809
sVGrassl
p847
I875
sVMerotto
p848
I876
sVArganza
p849
I1257
sVDomaine Bart
p850
I1261
sVStone Barn
p851
I1552
sVTavel
p852
I883
sVDominio De Tares
p853
I884
sVDalva
p854
I1296
sVHarthill Farm
p855
I886
sVChateau Greysac
p856
I887
sVDomaine de Terrebrune
p857
I888
sVL Enclave
p858
I889
sVTempliers
p859
I890
sVAhnfeldt
p860
I891
sVCamplong
p861
I892
sVCasa De Sarmento
p862
I893
sVReichsgraf von Kesselstatt
p863
I894
sVRoederer Estate
p864
I895
sVI Campi
p865
I896
sVPere Seda
p866
I3613
sVTarraWarra Estate
p867
I897
sVMenir
p868
I2980
sVCasa Nuestra
p869
I899
sVAmberton
p870
I900
sVSimon Erben
p871
I901
sVDomaine Caillot
p872
I902
sVAuguste Bessac
p873
I903
sVChampagne Pierre Moncuit
p874
I2395
sVLaphroaig
p875
I904
sVPalmina
p876
I905
sVYannick Amirault
p877
I906
sVJosef Schmid
p878
I907
sVCasa Del Rio Verde
p879
I908
sVDomaine Philippe Naddef
p880
I909
sVNicolas Maillet
p881
I910
sVMalandes
p882
I911
sVPojer E Sandri
p883
I912
sVMiguel Escorihuela Gascon
p884
I913
sVChateau Sainte Roseline
p885
I914
sVCassine Di Pietra
p886
I3676
sVCave Geisse
p887
I917
sVHomestead
p888
I918
sVLamothe Vincent
p889
I919
sVJosef Rosch
p890
I920
sVLa Cadierenne
p891
I921
sVAstrale e Terra
p892
I2272
sVNoblesse
p893
I3309
sVAlterra
p894
I923
sVMikrosvin Mikulov
p895
I924
sVCave Lablachere
p896
I925
sVVolcanic Hills
p897
I926
sVBelleville
p898
I928
sVPiety Flats
p899
I929
sVMaison Neuve
p900
I4202
sVMontellori
p901
I930
sVBauer
p902
I931
sVBouchie Chatellier
p903
I932
sVCannonball
p904
I933
sVDavid Sterza
p905
I934
sVTommasso Bussola
p906
I935
sVRhebokskloof
p907
I936
sVDomaine Grand Nicolet
p908
I937
sVMarianne
p909
I938
sVHighway 12
p910
I939
sVSchubert
p911
I940
sVLutzville
p912
I941
sVLocations
p913
I942
sVThe Societys
p914
I943
sVEugene Lebreton
p915
I2275
sVSanto Stefano
p916
I945
sVDomaine Henry Pelle
p917
I946
sVChateau Grand Pey Lescours
p918
I878
sVA.R. Lenoble
p919
I3224
sVGaladino
p920
I1688
sVJohann Topf
p921
I949
sVCandelaria
p922
I950
sVBouchon
p923
I2876
sVSpier Savanha
p924
I951
sVCave Spring
p925
I952
sVPergola
p926
I953
sVLinne Calodo
p927
I4170
sVTierra Nueva
p928
I954
sVCastelli Romani
p929
I955
sVChateau Lafaurie Peyraguey
p930
I956
sVCooper Mountain
p931
I957
sVEgervin
p932
I958
sVFive Rivers
p933
I959
sVSt. James Winery
p934
I960
sVGagliole
p935
I961
sVBowers Harbor Vineyards
p936
I962
sVMascarello
p937
I963
sVDidier Montchovet
p938
I964
sVKitchen Sink
p939
I965
sVKloster Pforta
p940
I966
sVPirie
p941
I967
sVAneto
p942
I2992
sVKongsgaard
p943
I969
sVChristian Drouin
p944
I970
sVAndre Brunel
p945
I971
sVChateau Saint Maurice
p946
I972
sVAmayna
p947
I973
sVKiefer
p948
I974
sVDomeco De Jarauta
p949
I503
sVChateau Beau Sejour Becot
p950
I976
sVDomaine de L'Arjolle
p951
I978
sVTerre Rouge
p952
I2993
sVMaurice Ecard
p953
I980
sVCantine Volpi
p954
I981
sVDomaine Des Coteaux Des Travers
p955
I982
sVGeorges Lignier Et Fils
p956
I983
sVVilla Tolnay
p957
I984
sVFidelitas
p958
I985
sVRoessler
p959
I2312
sVDan Aykroyd
p960
I987
sVGehringer Brothers
p961
I988
sVFrancisco Gomez
p962
I104
sVProemio
p963
I990
sVTarara Winery
p964
I3806
sVCastellaccio
p965
I4008
sVUvaggio (L'Uvaggio di Giacomo)
p966
I991
sVCastiglion Del Bosco
p967
I992
sVMarcel Cabelier
p968
I993
sVManoir Du Carra
p969
I994
sVDomaine Perrot Minot
p970
I995
sVGalli Estate
p971
I996
sVPoggio Castagno
p972
I997
sVBelair
p973
I998
sVPannonhalmi Apatsagi Pinceszet
p974
I999
sVIrma Top Fussion
p975
I1000
sVEspenhof
p976
I1002
sVCapafons Osso
p977
I1003
sVJasper Hill
p978
I1004
sVMoura Basto
p979
I1005
sVDe Grendel
p980
I1006
sVMuirwood
p981
I1007
sVSpringfontein
p982
I1008
sVFinca Martha
p983
I1009
sVTedeschi Vineyards
p984
I1744
sVColon
p985
I1010
sVTeutonic
p986
I1011
sVChateau Fleur Cardinale
p987
I1012
sVVignale
p988
I1013
sVOtazu
p989
I1014
sVGargiulo Vineyards
p990
I1015
sVChateau La Tour de Mons
p991
I2711
sVRepris
p992
I1017
sVJean Sablenay
p993
I1018
sVWalla Walla Vintners
p994
I1019
sVClub De Cosecheros
p995
I1020
sVBodegas Aruspide
p996
I1023
sVCasa Mader
p997
I1024
sVMas Des Bressades
p998
I1025
sVGiuseppe Lonardi
p999
I1026
sVMarc Morey Fils
p1000
I1027
sVKen Brown
p1001
I1578
sVUnion Des Vignerons
p1002
I1029
sVMaison Thomas Bassot
p1003
I1030
sVCravanzola
p1004
I3694
sVPago De Vallegarcia
p1005
I1032
sVRosendal
p1006
I836
sVRubicon Estate
p1007
I1034
sVSan Benedetto
p1008
I1035
sVFilliatreau
p1009
I1036
sVChateau Leoville Poyferre
p1010
I1038
sVReilly's
p1011
I2917
sVServe
p1012
I1040
sVEl Paso
p1013
I1041
sVGran Castillo
p1014
I1042
sVPoggio al Tesoro
p1015
I169
sVMondo
p1016
I1044
sVClos Des Menuts
p1017
I1045
sVEaston
p1018
I670
sVChateau Tertre Daugay
p1019
I1048
sVIl Bosco
p1020
I1049
sVBera Vittorio E Figli
p1021
I1050
sVChiaro
p1022
I1051
sVScherrer Winery
p1023
I1052
sVBon Cap
p1024
I1053
sVConn Valley Vineyard
p1025
I1054
sVCorte Sant Alda
p1026
I1055
sVBurlotto Andrea
p1027
I841
sVLuciano Bruni
p1028
I1057
sVPerez Pascuas
p1029
I1058
sVMarquis D Alban
p1030
I1059
sVStorrs
p1031
I1060
sVAda Nada
p1032
I1061
sVDehesa del Carrizal
p1033
I2318
sVSalvatore Molettieri
p1034
I1063
sVTerranea
p1035
I1064
sVScholium Project
p1036
I3004
sVCoron Pere &amp; Fils
p1037
I1066
sVBois De La Salle
p1038
I1067
sVRaymond Lafon
p1039
I1068
sVNotre Dame Des Pallieres
p1040
I3701
sVChateau De Santenay
p1041
I1071
sVPaul Goerg
p1042
I1072
sVLouis Changarnier
p1043
I3702
sVRainer Wess
p1044
I1074
sVCortese
p1045
I1075
sVAlder Springs
p1046
I1076
sVPeter Vella
p1047
I1077
sVMelini
p1048
I1078
sVMastroeni
p1049
I845
sVMaiano
p1050
I1080
sVJean Perrier
p1051
I1081
sVNonino
p1052
I1083
sVSanta Sofia
p1053
I1084
sVMarkus Schneider
p1054
I1085
sVSalva Terra
p1055
I175
sVGuido Berlucchi
p1056
I1087
sVSander
p1057
I1088
sVVillebois
p1058
I915
sVChateau Saint Christophe
p1059
I1090
sVClaymore
p1060
I1091
sVLarose De Gruaud
p1061
I1092
sVNettare Dei Santi
p1062
I3013
sVSpellbound
p1063
I1095
sVOlivier Riviere
p1064
I1096
sVFinca Perdriel
p1065
I1097
sVTerre Forti
p1066
I2994
sVRoger Baudraz
p1067
I1099
sVYangarra Estate Vineyard
p1068
I1100
sVLowe
p1069
I1102
sVFabien Coche Bouillot
p1070
I1103
sVTerre Antiche
p1071
I2292
sVVa Piano
p1072
I1105
sVTravaglino
p1073
I1106
sVTargovishte
p1074
I1107
sVChateau Mukhrani
p1075
I1108
sVLa Petite
p1076
I1526
sVQuinta Do Mouro
p1077
I327
sVCa' Rosa
p1078
I1111
sVCastello Di Verrazzano
p1079
I3015
sVGazela
p1080
I1527
sVDogarina
p1081
I1113
sVK Vintners
p1082
I1114
sVCasa Sierra
p1083
I1115
sVMagna
p1084
I1116
sVBoisson
p1085
I1117
sVFrancesco Capetta
p1086
I1118
sVNitinaus
p1087
I1119
sVDei Principi di Spadafora
p1088
I2295
sVTesoaria
p1089
I1120
sVFinca Decero
p1090
I1121
sVCassegrain
p1091
I1122
sVKendall jackson
p1092
I1123
sVVeuve A. Devaux
p1093
I309
sVSoaring Wings Vineyards
p1094
I3709
sVBarrister
p1095
I1126
sVEric Ross
p1096
I1127
sVCorte Gardoni
p1097
I1128
sVSoalheiro
p1098
I1541
sVNagyrede Estate
p1099
I1130
sVLiechtenstein
p1100
I1131
sVMoonstone
p1101
I1132
sVSangervasio
p1102
I1134
sVBully Hill
p1103
I619
sVAbundance Vineyards
p1104
I1136
sVGrey Wolf Cellars
p1105
I1137
sVFoxhorn
p1106
I1138
sVCa Del Monte
p1107
I1139
sVSimon Maye Fils
p1108
I1140
sVDaniel Gehrs
p1109
I1141
sVThe Gabrielle Collection
p1110
I1143
sVAmphorae
p1111
I1144
sVBetz Family
p1112
I1145
sVBernard Latour
p1113
I3714
sVMadirazza
p1114
I1147
sVGold Hill
p1115
I1148
sVColaneri
p1116
I1149
sVChateau La Foret
p1117
I1150
sVFritz Zimmer
p1118
I1151
sVFog Head
p1119
I2298
sVStuhlmuller Vineyards
p1120
I1154
sVKhareba
p1121
I2863
sVChateau Laroze
p1122
I1596
sVBrick House
p1123
I1158
sVKosta Browne
p1124
I1159
sVFelix Lorenzo Cachazo
p1125
I1160
sVCouleurs Du Sud
p1126
I1161
sVSangouard
p1127
I1162
sVBodegas Nieto Senetiner
p1128
I1163
sVCappellano
p1129
I2300
sVPulcino
p1130
I1165
sVGiovanni Rocca
p1131
I859
sVCassone
p1132
I1167
sVStonefields
p1133
I1324
sVPiero Constantini
p1134
I1169
sVAlma Rosa
p1135
I1170
sVChateau Plagnac
p1136
I1171
sVAvelino Vegas
p1137
I1172
sVDomaine Le Colombier
p1138
I1173
sVCave De Nolay
p1139
I1174
sVTorremoron
p1140
I1175
sVCastello Di Razzano
p1141
I1177
sVSamsara
p1142
I1178
sVChateau La Gorce
p1143
I1179
sVVins Miquel Gelabert
p1144
I1180
sVDomaine Roger Perrin
p1145
I1181
sVDegenfeld
p1146
I1182
sVBoscaini Carlo
p1147
I1795
sVPasquiers
p1148
I1185
sVThomas Coyne
p1149
I2302
sVAlberto Loi
p1150
I1187
sVWoop Woop
p1151
I1602
sVCasca Wines Monte Cascas
p1152
I1189
sVBlack Mountain Vineyard
p1153
I1190
sVFernand & Laurent Pillot
p1154
I505
sVMarques de Alella
p1155
I1192
sVMurganheira
p1156
I1193
sVBorgo Antico
p1157
I1194
sVBrutocao Cellars
p1158
I1195
sVMarchesi
p1159
I1196
sVBlankiet Estate
p1160
I193
sVBoschkloof
p1161
I1198
sVLa Minga
p1162
I866
sVDomaine Pelaquie
p1163
I3723
sVVan Duzer
p1164
I1202
sVGrandial
p1165
I1203
sVDomaine Claude Dugat
p1166
I1204
sVCascina Fonda
p1167
I1205
sVCape May
p1168
I1206
sVLivernano
p1169
I1207
sVExpression
p1170
I1208
sVBovlei Winery
p1171
I1209
sVBidoli
p1172
I1210
sVLieb
p1173
I1211
sVSeaglass
p1174
I3334
sVJeff Runquist
p1175
I1212
sVR. & L. Legras
p1176
I1213
sVFattoria Paradiso
p1177
I1214
sVTerrasses d'Autan
p1178
I1215
sVRoc De Lussac
p1179
I1216
sVServir Frais
p1180
I197
sVEsser
p1181
I3823
sVBarale
p1182
I1219
sVChateau Desmirail
p1183
I1220
sVMontenisa
p1184
I1222
sVParri
p1185
I1608
sVDr. Beckermann
p1186
I1224
sVTerra D'Oro
p1187
I3038
sVHrabal
p1188
I1226
sVCastello Il Palagio
p1189
I1228
sVSan Fereolo
p1190
I1229
sVMatchbook
p1191
I1230
sVSobrero
p1192
I1231
sVPira Luigi
p1193
I1232
sVVina Bujanda
p1194
I1233
sVSea Horse Winery
p1195
I1610
sVL Enclos
p1196
I1235
sVChateau Miraval
p1197
I1236
sVJudd's Hill
p1198
I1237
sVChateau La Bastides
p1199
I1238
sVDomaine Chavy Chouet
p1200
I873
sVChateau Gilette
p1201
I1240
sVChateau Lieujean
p1202
I1241
sVSudtiroler Weinbauernverband
p1203
I3041
sVLarionov
p1204
I3868
sVMarcel Andre
p1205
I1242
sVChateau Labegorce
p1206
I1243
sVGeoff Merrill
p1207
I1245
sVTsillan
p1208
I1246
sVBroglia
p1209
I235
sVGambino
p1210
I1248
sVFamilia Belasco
p1211
I1249
sVPyramid Valley Vineyards
p1212
I3979
sVKartuli Vazi
p1213
I2316
sVAcorn
p1214
I1252
sVDomaine Bernard Baudry
p1215
I1253
sVAtwater Vineyards
p1216
I1254
sVThree Rivers
p1217
I1255
sVDomaine Alain Chavy
p1218
I1256
sVLandolt
p1219
I879
sVWellington Vineyards
p1220
I1258
sVChateau La Fleur De Gay
p1221
I1259
sVMassena Vineyards
p1222
I1260
sVVieux Pressoir
p1223
I880
sVBernhard
p1224
I4177
sVT Vine
p1225
I1262
sVConcavins
p1226
I1263
sVCantelys
p1227
I1264
sVChateau du Donjon
p1228
I1265
sVChateau La Cabanne
p1229
I1266
sVTenimenti Luigi D Alessandro
p1230
I1268
sVRobles
p1231
I1269
sVQuinta da Alorna
p1232
I1270
sVBallast Stone
p1233
I1271
sVBosco Dei Cirmioli
p1234
I1272
sVPassionate
p1235
I1273
sVFassati
p1236
I1274
sVSand Castle
p1237
I1275
sVCuatro Rayas
p1238
I1276
sVPascal Jolivet
p1239
I1082
sVFougeray De Beauclair
p1240
I2322
sVPillsbury
p1241
I1281
sVHabersham
p1242
I1282
sVHdV
p1243
I3625
sVCobbler Mountain
p1244
I1284
sVBussia Soprana
p1245
I2987
sVGlen Ellen
p1246
I1285
sVGratien & Meyer
p1247
I1286
sVPierre Olivier
p1248
I1288
sVUlysse Cazabonne
p1249
I1289
sVChateau Paveil de Luze
p1250
I3097
sVEmmanuel Delicata Winemaker
p1251
I1290
sVLuigi Einaudi
p1252
I1291
sVCeller el Masroig
p1253
I1292
sVLachini Vineyards
p1254
I1293
sVDouloufakis
p1255
I1294
sVFinca El Portillo
p1256
I1295
sVBric Cenciurio
p1257
I885
sVRembert Freiherr Von Schorlemer
p1258
I149
sVPodere Sante Marie
p1259
I1298
sVInurrieta
p1260
I3469
sVGreen Point
p1261
I1299
sVChateau Duhart Milon Rothschild
p1262
I1300
sVWeingut R & A Pfaffl
p1263
I501
sVDigioia Royer
p1264
I1302
sVBalistreri
p1265
I1303
sVChateau Martet
p1266
I1304
sVJam
p1267
I1305
sVCastillo de Molina
p1268
I3853
sVLa Castellada
p1269
I1307
sVGrand Jean
p1270
I3562
sVBalboa
p1271
I1308
sVJonathan Edwards
p1272
I1311
sVRoccamena
p1273
I1312
sVMaucoil
p1274
I1313
sVGaston Chiquet
p1275
I1315
sVTraenheim
p1276
I1316
sVInvivo
p1277
I1317
sVBaroncourt
p1278
I1318
sVChateau Turcaud
p1279
I1319
sVFollador
p1280
I1320
sVLopez Cristobal
p1281
I1321
sVRatzenberger
p1282
I1322
sVSawyer Cellars
p1283
I1323
sVTavora Varosa
p1284
I1325
sVGourran
p1285
I1326
sVGrace
p1286
I1327
sVChateau Hanteillan
p1287
I216
sVLa Bascula
p1288
I1329
sVBraschi
p1289
I1330
sVRutishauser
p1290
I1331
sVOrlandi Contucci Ponno
p1291
I1332
sVBorgo Conventi
p1292
I1333
sVChateau Lafitte
p1293
I609
sVLes Clos De Paulilles
p1294
I1335
sVBodega Chacra
p1295
I1336
sVMaison Bouachon
p1296
I1337
sVPlumpJack
p1297
I1338
sVAugusta
p1298
I1339
sVHerdade Do Perdigao
p1299
I1340
sVOgio
p1300
I3061
sVFikardos
p1301
I1342
sVRaspi
p1302
I1343
sVSome Young Punks
p1303
I1344
sVSchneekloth
p1304
I1345
sVCascade Cliffs
p1305
I1176
sVSartarelli
p1306
I1348
sVRocca Felice
p1307
I1349
sVNapa Ridge
p1308
I1350
sVBiagio
p1309
I1351
sVBrander
p1310
I3698
sVTenimenti Fontanafredda
p1311
I1352
sVClonakilla
p1312
I1353
sVIncanto
p1313
I1354
sVMonteverdi
p1314
I1355
sVDomaine Wehrle
p1315
I1356
sVPatria
p1316
I1357
sVDomaine Des Lambrays
p1317
I1358
sVThe Balvenie
p1318
I1359
sVMonte Calina
p1319
I1360
sVVinartis
p1320
I1361
sVSanta Luzia
p1321
I1765
sVKeuka Spring Vineyards
p1322
I1363
sVAbadal
p1323
I1365
sVCantine Antonio Caggiano
p1324
I656
sVCharles Bonvin
p1325
I1367
sVRainer Sauer
p1326
I1368
sVBernard Humbrecht
p1327
I1369
sVFrederic Mabileau
p1328
I1371
sVMuseum
p1329
I1372
sVDecugnano Dei Barbi
p1330
I1373
sVPoggio Antico
p1331
I1374
sVPetrvs
p1332
I3068
sVTeperberg 1870
p1333
I1377
sVMassa Vecchia
p1334
I1378
sVLes Comtesses
p1335
I1379
sVDa Vinci
p1336
I3069
sVZanrosso
p1337
I1381
sVSainte Rosaline
p1338
I3750
sVSpielberg
p1339
I1383
sVCottinelli
p1340
I1384
sVChateau Brown
p1341
I1385
sVQuinta De Pancas
p1342
I1386
sVQuartz Reef
p1343
I1387
sVColosi
p1344
I1388
sVHeulin
p1345
I1389
sVStadlmann
p1346
I1390
sVChateau Sociando Mallet
p1347
I1392
sVBaudron
p1348
I1069
sVPatris
p1349
I3994
sVCataldi Madonna
p1350
I3696
sVChateau Fonplegade
p1351
I1394
sVAyles
p1352
I3071
sVChateau Lamothe Guignard
p1353
I1395
sVJosic
p1354
I1396
sVAll Saints Estate
p1355
I1397
sVGeorg Bestle
p1356
I1633
sVC. von Schubertsche SchloSSkellerei
p1357
I1399
sVSpencer Hill
p1358
I69
sVHeitz Cellars
p1359
I1401
sVCaballo Negro
p1360
I1402
sVLabaume
p1361
I1403
sVLailey Vineyard
p1362
I1404
sVJean Claude Chatelain
p1363
I1405
sVThree Thieves
p1364
I1406
sVMarquis d'Alban
p1365
I1407
sVSan Jose de Apalta
p1366
I1408
sVDynamite Vineyards
p1367
I1409
sVFiorini
p1368
I1410
sVTintoralba
p1369
I1411
sVHerve Kerlann
p1370
I1412
sVLa Pousse d'Or
p1371
I146
sVSan Pedro De Yacochuya
p1372
I1635
sVAlain Geoffron
p1373
I1415
sVAlto Roble
p1374
I1416
sVBock
p1375
I1417
sVMeulenhof
p1376
I184
sVCordero Di Montezemolo
p1377
I1419
sVKendermanns
p1378
I1420
sVCamille Viliard
p1379
I1421
sVRex Hill
p1380
I1422
sVRijckaert
p1381
I1423
sVAmberley
p1382
I223
sVCooperative
p1383
I1425
sVL Ile De Beaute
p1384
I1426
sVWeingut Schloss Sommerhausen
p1385
I1427
sVLa Colombina
p1386
I234
sVElvio Cogno
p1387
I1429
sVFerrero
p1388
I1430
sVDelamotte
p1389
I249
sVBlanco Nieva
p1390
I254
sVPlunkett Fowles
p1391
I1434
sVFauchon
p1392
I3760
sVCornalin
p1393
I3079
sVPearly Bay
p1394
I229
sVRoyal
p1395
I1438
sVValdelana
p1396
I1439
sVPrimo Palatum
p1397
I1440
sVTili
p1398
I306
sVHirschhof
p1399
I465
sVDomaine De Pellehaut
p1400
I1443
sVSleight Of Hand
p1401
I1444
sVVieil Armand
p1402
I1445
sVConte Estate
p1403
I1446
sVVolpaia
p1404
I1447
sVSan Carlos
p1405
I1448
sVLidl
p1406
I1449
sVPalacio De Bornos
p1407
I1450
sVDona Florencia
p1408
I230
sVMontevertine
p1409
I1451
sVJean Charles Fagot
p1410
I1452
sVChateau Caroline
p1411
I359
sVGran Clos
p1412
I2340
sVDomaine La Garrigue
p1413
I368
sVDomaine De Villeneuve
p1414
I1456
sVBon Remede
p1415
I1457
sVSan Jose De Apalta
p1416
I1458
sVHook & Ladder
p1417
I1459
sVR. Stuart & Co
p1418
I1460
sVCastello Di Bossi
p1419
I1461
sVMarques de Gelida
p1420
I408
sVAntichi Vinai
p1421
I1463
sVOsvaldo Viberti
p1422
I1465
sVMelgaco
p1423
I1467
sVLouisvale
p1424
I3356
sVGiorgi
p1425
I1468
sVDavid Arthur
p1426
I1469
sVChevalier Lacassan
p1427
I1470
sVDomaine De Montille
p1428
I455
sVGiovanni Manzone
p1429
I1472
sVRidgeback
p1430
I1473
sVMartin Berdugo
p1431
I1474
sVA Christmann
p1432
I1475
sVChateau de Lastours
p1433
I489
sVIsola Augusta
p1434
I1479
sVChateau La Pointe
p1435
I497
sVCalifornian
p1436
I1481
sVClos Du Bois
p1437
I1482
sVMocavero
p1438
I1483
sVGuado Al Melo
p1439
I1484
sVGut Hermannsberg
p1440
I535
sVCaposaldo
p1441
I1486
sVAlphonse Meyer
p1442
I1487
sVCastelfeder
p1443
I1488
sVAlximia
p1444
I1489
sVRosabrook
p1445
I556
sVMalibu Family Wines
p1446
I1491
sVElvi
p1447
I1492
sVFinca flichman
p1448
I573
sVSoraighe
p1449
I1494
sVMichel Fonne
p1450
I1495
sVDe La Jasse
p1451
I1496
sVGerard Seguin
p1452
I3779
sVBoroli
p1453
I1498
sV8 Chains North
p1454
I1499
sVJean Claude Bessin
p1455
I1500
sVH. Stagnari
p1456
I635
sVLavigne
p1457
I1502
sVVipava
p1458
I1503
sVJourney's End
p1459
I1504
sVCastello Dei Rampolla
p1460
I90
sVVida
p1461
I1506
sVOrestiadi
p1462
I3771
sVLyonnat
p1463
I1508
sVDomaine De Chevalier
p1464
I1510
sVDomaine du Grand Tinel
p1465
I1511
sVBelmonte
p1466
I3748
sVThe At Holy Cross Abbey
p1467
I1512
sVHill Family Estate
p1468
I682
sVGascon
p1469
I3192
sVChateau Poulvere
p1470
I1516
sVBaron De Urzande
p1471
I1517
sVLa Rocca
p1472
I1518
sVReustle
p1473
I1520
sVLagaria
p1474
I724
sVAguiar
p1475
I1522
sVD'Aupilhac
p1476
I1523
sVAntoine Et Christophe Betrisey
p1477
I3772
sVPacheco Pereda
p1478
I740
sVJean Louis Baur
p1479
I244
sVColorado Cellars
p1480
I753
sVDomaine Dominique Gallois
p1481
I1528
sVMockingbird Hill
p1482
I1529
sVPiero Mancini
p1483
I1530
sVAnne Et Pascal Guignet
p1484
I1531
sVSanguinhal
p1485
I1532
sVDomaine de Regusse
p1486
I774
sVHalter Ranch Vineyard
p1487
I1534
sVTancia
p1488
I1535
sVHermosa
p1489
I3773
sVThacher
p1490
I1537
sVSan Colombano
p1491
I1538
sVMas Carlot
p1492
I1539
sVRomio
p1493
I799
sVAlasia
p1494
I1542
sVMilantino
p1495
I1543
sVVenica Et Venica
p1496
I1545
sVJanuik
p1497
I1546
sVValmarone
p1498
I1547
sVNyakas
p1499
I2130
sVChateau Vincens
p1500
I1549
sVKahurangi
p1501
I869
sVCinco Tierras
p1502
I1659
sVMontfaucon
p1503
I881
sVArger Martucci
p1504
I1553
sVDaou Vineyards
p1505
I1556
sVAndre Vonnier
p1506
I1557
sVContador   Benjamin Romeo
p1507
I1558
sVMcKenzie Mueller
p1508
I1559
sVLa Vieille Ferme
p1509
I1560
sVBodegas Almenar
p1510
I1561
sVWeingut Koster Wolf
p1511
I3778
sVDon Diego
p1512
I1563
sVCave Grand Listrac
p1513
I1564
sVHubertushof
p1514
I1565
sVChateau du Taillan
p1515
I1567
sVNovello
p1516
I1568
sVGeorge
p1517
I1569
sVHob Nob
p1518
I1570
sVJayer Gilles
p1519
I232
sVGalena
p1520
I1572
sVLeclerc Briant
p1521
I1573
sVNetzl
p1522
I1575
sVRupert Rothschild
p1523
I1576
sVHabla
p1524
I1577
sVEsteban Martin
p1525
I1028
sVMondelli
p1526
I1579
sVFranzhaas
p1527
I1580
sVKingston Family Vineyards
p1528
I1581
sVTornai
p1529
I1582
sVArnaud Aucoeur
p1530
I1584
sVMazzoni
p1531
I1585
sVTollana
p1532
I1586
sVWenzel
p1533
I1587
sVDuijn
p1534
I3783
sVChateau De Gaudou
p1535
I1589
sVCasa Fondata
p1536
I1590
sVFlechas De Los Andes
p1537
I1591
sVPodere Castorani
p1538
I3612
sVClayhouse Vineyard
p1539
I1592
sVTerralis
p1540
I1593
sVDarons De Rothschild Lafite
p1541
I1595
sVFrogtown
p1542
I1156
sVBeresan
p1543
I1168
sVFrancois Baur
p1544
I1598
sVChateau Ormes de Pez
p1545
I870
sVGiovanni Corino
p1546
I1600
sVMottura
p1547
I1601
sVDomaine Rene Bouvier
p1548
I1188
sVCesarini Sartori
p1549
I1603
sVGrof Degenfeld
p1550
I1604
sVOdisea
p1551
I1605
sVMarco de Bartoli
p1552
I1606
sVMarsden
p1553
I1223
sVTerroir Al Limit Soc. Lda.
p1554
I1609
sVMaquis
p1555
I1234
sVSperone
p1556
I1611
sVVilla Locatelli
p1557
I1612
sVVon Othegraven
p1558
I1613
sVHayes Ranch
p1559
I1614
sVLouis
p1560
I1615
sVMont Clair
p1561
I1616
sVLa Rose
p1562
I1617
sVHalbeisen
p1563
I1278
sVSalustri
p1564
I1619
sVChateau Tour Prignac
p1565
I1620
sVCocci Grifoni
p1566
I1621
sVMarchesi Incisa Della Rochetta
p1567
I1622
sVDomaine Vacheron
p1568
I2372
sVArgyros
p1569
I1624
sVOxford Landing Estates
p1570
I3790
sVTriton
p1571
I1626
sVNozzole
p1572
I3106
sVTenute Loacker
p1573
I1627
sVStaglin Family Vineyard
p1574
I2373
sVRideau
p1575
I1630
sVLa Querciola
p1576
I1631
sVNickel Nickel
p1577
I1632
sVTexas Hills Vineyard
p1578
I1398
sVSilvestri
p1579
I407
sVGordon Brothers
p1580
I1414
sVVilarnau
p1581
I1636
sVHerdade da Comporta
p1582
I3109
sVKellerei St. Magdalena
p1583
I1638
sVFour Sisters
p1584
I1639
sVChateau Verdignan
p1585
I1640
sVThe Ojai
p1586
I1641
sVPujanza
p1587
I1642
sVLa Chateau
p1588
I1643
sVGray Fox Vineyards
p1589
I1644
sVStevenot
p1590
I1645
sVLoron &amp; Fils
p1591
I1646
sVDomaine Montrose
p1592
I2532
sVLes Domaines Auriol
p1593
I1647
sVRings
p1594
I1648
sVWither Hills
p1595
I1649
sVBeau Mistral
p1596
I1651
sVBully Hill Vineyards
p1597
I1370
sVDespagne
p1598
I1653
sVJulius Klein
p1599
I1654
sVHenri Badoux
p1600
I4083
sVCh. Wantz
p1601
I1391
sVSolandia
p1602
I1657
sVMatosevic
p1603
I1658
sVSan Alejandro
p1604
I1551
sVCasa De Saima
p1605
I1662
sVLudwig
p1606
I1663
sVDomaine Paul Kubler
p1607
I1664
sVPiere Marie Charmette
p1608
I1665
sVParalelo
p1609
I1666
sVBernard Defaix
p1610
I1667
sVChateau Charmail
p1611
I1668
sVL'Orangerie
p1612
I1669
sVDomaine Saint Remy
p1613
I1670
sVBryant Family Vineyard
p1614
I1671
sVChateau De Potiron
p1615
I1672
sVGiribaldi
p1616
I1673
sVL Aurore
p1617
I1674
sVJekel Vineyards
p1618
I1675
sVClover Hill
p1619
I1676
sVGlenfarclas
p1620
I1677
sVCassagnoles
p1621
I1678
sVCampo De Borja
p1622
I1679
sVJohnson
p1623
I1661
sVJessup
p1624
I1681
sVHeimberger
p1625
I1682
sVFamiglia Pasqua
p1626
I1684
sVZichichi Family Vineyard
p1627
I1685
sVPatrick Clemencet
p1628
I1686
sVArmand Roux
p1629
I1687
sVFrancois Montand
p1630
I1689
sVSalvestrin
p1631
I1690
sVSilver Horse
p1632
I1691
sVBodega Noemia De Patagonia
p1633
I1509
sVFourrey
p1634
I4151
sVAurelio Settimo
p1635
I1695
sVCastello Di Farnetella
p1636
I1696
sVCharron Vineyards
p1637
I1698
sVLes Ormes De Cambras
p1638
I4188
sVBrightwater Vineyards
p1639
I1700
sVNoceto
p1640
I1701
sVHannah Nicole
p1641
I3924
sVChateau Grand Puy Lacoste
p1642
I1703
sVChateau Plantey
p1643
I4182
sVNeckenmarkt
p1644
I1704
sVBodegas de Santo Tomas
p1645
I3628
sVRoche Maze
p1646
I1706
sVDiamond Ridge Vineyards
p1647
I1707
sVOliver's Taranga Vineyards
p1648
I1708
sVMarabino
p1649
I1709
sVQuevedo
p1650
I1710
sVL Armangia
p1651
I1711
sVPacher Hof
p1652
I685
sVFratelli Revello
p1653
I1713
sVRotta
p1654
I1714
sVMarchesi Alfieri
p1655
I1715
sVGourgazaud
p1656
I1716
sVReynolds Family Winery
p1657
I1717
sVBarcelo
p1658
I1718
sVLe Moulin
p1659
I1719
sVLa Jota Vineyard
p1660
I1720
sVEnvy Wines
p1661
I1721
sVBoretice
p1662
I3044
sVKartauserhof
p1663
I1723
sVChateau Saint Esteve
p1664
I1724
sVL Ormarine
p1665
I1725
sVPietra Santa
p1666
I557
sVAnaba
p1667
I1729
sVTorri
p1668
I1917
sVWeltachs Weinkellerei
p1669
I1731
sVRamirez De La Piscina
p1670
I1732
sVColle Sori
p1671
I1733
sVLa Montecchia
p1672
I1734
sVGuyot
p1673
I1735
sVLuigi Oddero
p1674
I1736
sVDr. Wehrheim
p1675
I3202
sVSan Lorenza
p1676
I2389
sVBaron Herzog
p1677
I1738
sVCentanni
p1678
I1739
sVBodegas Costers del Sio
p1679
I1740
sVJoel Taluau
p1680
I1741
sVLucas Lewellen
p1681
I1742
sVGomez Cruzado
p1682
I1743
sVChavron
p1683
I1705
sVL Eglise
p1684
I1692
sVBirgit Braunstein
p1685
I1746
sVMaury Estate
p1686
I1748
sVWhitewater Hill
p1687
I3236
sVSignos
p1688
I1749
sVDellatorri
p1689
I1750
sVSchoenheitz
p1690
I1751
sVJean Louis Quinson
p1691
I1753
sVBortolo Mascarello
p1692
I1754
sVAltydgedacht
p1693
I1755
sVBerta
p1694
I1756
sVChateau Roquegrave
p1695
I1757
sVBernard Griffin
p1696
I1093
sVMartin Wassmer
p1697
I1759
sVJean Yves Bizot
p1698
I1760
sVQuarles Harris
p1699
I1761
sVFenn Valley
p1700
I1762
sVAntica Masseria
p1701
I1763
sVFemar Vini
p1702
I1764
sVJean Max Roger
p1703
I316
sVDomaine Pierre Labet
p1704
I1767
sVLamole Di Lamole
p1705
I1768
sVContemporal
p1706
I2633
sVCouly Dutheil
p1707
I1770
sVLes Vignobles Foncalieu
p1708
I3812
sVHenriques &amp; Henriques
p1709
I1772
sVColinas de Sao Lourenco
p1710
I1774
sVDuemani
p1711
I1775
sVChantovent
p1712
I3134
sVKoonara
p1713
I1777
sVGonnet
p1714
I1778
sVClavien Sa Sion
p1715
I1779
sVBuck Creek Winery
p1716
I3814
sVQuinta Da Aveleda
p1717
I1782
sVCa Montebello
p1718
I1783
sVAtalon
p1719
I1784
sVKenneth Volk
p1720
I1785
sVAguirre Family
p1721
I1786
sVTeyssier
p1722
I1555
sVBodegas Vina Vilano
p1723
I1789
sVRonchi Di Cialla
p1724
I1790
sVLenton Brae
p1725
I1791
sVAtacama
p1726
I1554
sVSylvie Esmonin
p1727
I2401
sVBollenberg
p1728
I1794
sVCastello Di Uzzano
p1729
I1796
sVChateau de Segries
p1730
I1797
sVNugues
p1731
I1798
sVA. Zirnhelt
p1732
I1799
sVFredreric Magnien
p1733
I1801
sVBerne
p1734
I1803
sVAzienda Agricola Sant'Elena
p1735
I1804
sVMont Rochelle
p1736
I3801
sVRaccolto
p1737
I1805
sVMarchais
p1738
I1807
sVSanta Florentina
p1739
I1808
sVChateau Maucamps
p1740
I1809
sVStonewood
p1741
I4049
sVDomaine Viret
p1742
I1810
sVBlain Gagnard
p1743
I1811
sVDomaine Mazurd
p1744
I1812
sVChereau Carre
p1745
I1813
sVL Aumerade
p1746
I1814
sVMeinert
p1747
I4180
sVMas Igneus
p1748
I1815
sVRuppertsberger
p1749
I1817
sVChateau Livran
p1750
I1818
sVBuehler Vineyards
p1751
I2503
sVSalmon Creek
p1752
I1820
sVViader
p1753
I1822
sVPeter Wegelin Scadenagut
p1754
I1824
sVSpatburgunder
p1755
I1825
sVMezzocorona
p1756
I2405
sVHerrenberg Honigsackel
p1757
I1827
sVPortalegre
p1758
I3686
sVMounts
p1759
I1828
sVBodega Cruz de Piedra
p1760
I1829
sVPrado Rey
p1761
I1830
sVLakeridge
p1762
I1831
sVBitouzet Prieur
p1763
I1832
sVSanta Angelica
p1764
I1833
sVDiStefano
p1765
I818
sVGiuseppe Cortese
p1766
I1835
sVCorte Dei Mori
p1767
I1712
sVJacques Depagneux
p1768
I1837
sVMiliasso
p1769
I1838
sVChateau de la Roulerie
p1770
I1839
sVRuggeri Corsini
p1771
I1840
sVMoreno Musaragno
p1772
I1841
sVChateau Haut Brisson
p1773
I1842
sVCeralti
p1774
I1844
sVCrin Roja
p1775
I1845
sVShabo
p1776
I2410
sVPietro Zardini
p1777
I3594
sVAndes Peaks
p1778
I1847
sVFermoy Estate
p1779
I1848
sVPina
p1780
I1101
sVMontalbera
p1781
I1850
sVVale Dos Vinhedos
p1782
I1851
sVFlavio Roddolo
p1783
I1852
sVBodegas Aragonesas
p1784
I3089
sVMetzger
p1785
I1854
sVSierra Norte
p1786
I1855
sVFinca La Escondida
p1787
I1857
sVShelton Vineyards
p1788
I1858
sVBerlucchi
p1789
I1859
sVFellbacher Weingartner
p1790
I1860
sVChateau Deyrem Valentin
p1791
I1861
sVMontalcino
p1792
I1862
sVTamaral
p1793
I2721
sVWeingut Am Stein
p1794
I1864
sVThousand Islands Winery
p1795
I1865
sVRancho Zabaco
p1796
I1866
sVWegeler
p1797
I1867
sVMacMurray Ranch
p1798
I1869
sVArmand Hurst
p1799
I1870
sVSalena Estate
p1800
I1871
sVCandela
p1801
I1873
sVAlain Grignon
p1802
I259
sVTarlant
p1803
I1875
sVSao Domingos
p1804
I1876
sVChateau Robin
p1805
I1788
sVRavanello
p1806
I1878
sVRollet
p1807
I1879
sVZyme
p1808
I1880
sVBabylons Peak
p1809
I1881
sVFillipa Pato
p1810
I1882
sVde Venoge
p1811
I1883
sVAnvers
p1812
I1884
sVChateau Bastor Lamontagne
p1813
I1885
sVL Engarran
p1814
I1001
sVLa Vicomte
p1815
I1887
sVAndre Blanck
p1816
I1888
sVSolena
p1817
I1889
sVCarinena
p1818
I1890
sVTonet
p1819
I2890
sVHenry Marionnet
p1820
I1892
sVDry River
p1821
I1894
sVBodega Barberis
p1822
I1895
sVPujol Izard
p1823
I1896
sVDomaine des Anges
p1824
I3998
sVAlbert Morot
p1825
I1897
sVRottlan Torra
p1826
I1898
sVMudbrick
p1827
I1899
sVCascina Gili
p1828
I2418
sVDenis Meyer
p1829
I1901
sVTorre Quarto
p1830
I3837
sVWine Spots
p1831
I1902
sVFratelli Vogadori
p1832
I1903
sVOttella
p1833
I1904
sVQuinta Don Bonifacio
p1834
I3838
sVPalmer
p1835
I1905
sVAntigniano
p1836
I1906
sVJean Bernard Saby
p1837
I1727
sVJoao Portugal Ramos
p1838
I1908
sVFeudo Monaci
p1839
I1909
sVChateau Pavie Decesse
p1840
I1910
sVGrimaldi
p1841
I1911
sVMatariki
p1842
I1912
sVJoostenberg
p1843
I1913
sVBourillon Dorleans
p1844
I1914
sVLes Gres
p1845
I1915
sVAndrew Peace
p1846
I261
sVCastello Del Trebbio
p1847
I1918
sVDomaine Georges Michel
p1848
I1919
sVLa Montina
p1849
I3389
sVCandoni
p1850
I1853
sVEnrico Santini
p1851
I1652
sVNiner Estates
p1852
I1921
sVChapin
p1853
I1922
sVCeuso
p1854
I1923
sVMarquis De Goulaine
p1855
I3156
sVIsabelle Et Pierre Clement
p1856
I1925
sVEngel
p1857
I1926
sVAndert Josef
p1858
I1927
sVLe Vigne Di Zamo
p1859
I1928
sVHermanuspietersfontein
p1860
I2423
sVJean Wach
p1861
I1930
sVMaurigi
p1862
I1931
sVLine Shack
p1863
I278
sVGoldenits
p1864
I1933
sVBaudare
p1865
I1934
sVLouis Moulin
p1866
I1935
sVDomaine Fontaine Gagnard
p1867
I2310
sVGuardian Cellars
p1868
I1937
sVNovy Family Winery
p1869
I1938
sVFongoli
p1870
I1939
sVPfaffenheim
p1871
I1940
sVBellaria
p1872
I1941
sVRaka
p1873
I1942
sVViento Norte
p1874
I1944
sVPaul Bara
p1875
I1945
sVDashe
p1876
I1946
sVRocca Di Frassinelle
p1877
I1947
sVPigeonnier De Seguin
p1878
I1948
sVLangtry Estate
p1879
I1949
sVJomain
p1880
I1950
sVChilean
p1881
I1951
sVSiebe Dupf
p1882
I1952
sVLaulerie
p1883
I1953
sVMondo del Vino
p1884
I1954
sVHruska
p1885
I2778
sVCodici
p1886
I1955
sVSanta Trinita
p1887
I3176
sVLa Casada
p1888
I1956
sVSan Cristoforo
p1889
I3291
sVChateau du Breuil
p1890
I1958
sVBurlwood Cellars
p1891
I1959
sVCampo Alla Sughera
p1892
I1960
sVWindwalker Vineyard
p1893
I1961
sVLindauer
p1894
I3571
sVAntica Enotria
p1895
I1962
sVCasa Primicia
p1896
I1963
sVShade Mountain
p1897
I3132
sVThe Eyrie Vineyards
p1898
I1964
sVCarl Sittmann
p1899
I1965
sVCroix
p1900
I1966
sVKlostor
p1901
I1967
sVEikendal Vineyards
p1902
I1968
sVIl Pollenza
p1903
I1650
sVAmezola De La Mora
p1904
I1970
sVMarques De Arienzo
p1905
I1722
sVJacques Cacheux
p1906
I3165
sVTodd Taylor
p1907
I1976
sVMolina
p1908
I1977
sVMichel Guignier
p1909
I1978
sVCultura Vini
p1910
I1979
sVMartue
p1911
I1980
sVForis
p1912
I1983
sVDragonette Cellars
p1913
I1984
sVDavis Family Vineyards
p1914
I1985
sVFielding Estate Winery
p1915
I1986
sVQuady
p1916
I1987
sVBodegas Santa Julia
p1917
I1697
sVJamiesons Run
p1918
I4178
sVAudrey Et Christian Binner
p1919
I1989
sVEl Descanso
p1920
I1990
sVGrosjean
p1921
I1991
sVBartoli Giusti
p1922
I1992
sVGarzon
p1923
I1993
sVChateau Boswell
p1924
I2942
sVClerget
p1925
I1994
sVChristian Lebaupin
p1926
I1995
sVAuburn Road
p1927
I2116
sVFirefly Ridge
p1928
I1745
sVIngoldby
p1929
I1996
sVCharles Renoir
p1930
I1997
sVMontiero
p1931
I1998
sVGoldschmidt Vineyards
p1932
I1999
sVTokaji
p1933
I2000
sVJ. M. Boillot
p1934
I2001
sVCastelnuovo Berardenga
p1935
I2434
sVWater 2 Wine
p1936
I2002
sVChateau Charron
p1937
I2003
sVGrotta Del Sole
p1938
I2004
sVWoodhaven
p1939
I2005
sVFattoria Monticino Rosso
p1940
I2006
sVIl Carpino
p1941
I2007
sVReal Companhia Velha Royal Oporto
p1942
I2008
sVLa Stoppa
p1943
I2009
sVQuintay
p1944
I2010
sVWoollaston
p1945
I2011
sVMarynissen Estates
p1946
I2012
sVMax Ferd. Richter
p1947
I2013
sVAssaf
p1948
I2014
sVContessa
p1949
I2015
sVJean Pierre Boisson
p1950
I2016
sVDomaine Des Roches Neuves
p1951
I2017
sVRedgate
p1952
I2018
sVFerrando
p1953
I2019
sVLas Lomas
p1954
I2020
sVChristopher Creek
p1955
I2021
sVEverett Ridge
p1956
I2022
sVWaipara Hills
p1957
I2921
sVNautilus
p1958
I3173
sVPhilip Shaw
p1959
I2023
sVSoto De Torres
p1960
I2024
sVBlue Pyrenees
p1961
I1823
sVBodega Volcanes
p1962
I1981
sVAurelien Verdet
p1963
I2027
sVPoderi Colla
p1964
I2028
sVLivio Pavese
p1965
I2029
sVNicolas Napoleon
p1966
I2030
sVBeres
p1967
I2031
sVCabriz
p1968
I2032
sVChateau La Tour Figeac
p1969
I2033
sVChard Farm
p1970
I2034
sVPatricius
p1971
I1505
sVTerras Gauda
p1972
I2035
sVFanny Sabre
p1973
I2036
sVBepin De Eto
p1974
I2442
sVPaitin Di Pasquero Elia
p1975
I2038
sVAntica
p1976
I3860
sVGeorges Vesselle
p1977
I1550
sVSan Salvatore
p1978
I2041
sVMas Belles Eaux
p1979
I2042
sVAlte Rocche Bianche
p1980
I2043
sVPiccinini
p1981
I2044
sVRaats
p1982
I2045
sVLancaster
p1983
I555
sVLaurets
p1984
I2047
sVErmelinda Freitas
p1985
I2048
sVCharles de Fere
p1986
I2049
sVCinque Terre
p1987
I2050
sVFranco Todini
p1988
I2051
sVAntoine Arena
p1989
I2052
sVDomaine Lalande
p1990
I2053
sVChateau de Respide
p1991
I1519
sVGranito
p1992
I2055
sVHubert Beck
p1993
I3178
sVGagliasso Mario
p1994
I3293
sVJ. Bookwalter
p1995
I2057
sVJosef Dockner
p1996
I2169
sVJ. H. Andresen
p1997
I2059
sVNicholson Ranch
p1998
I2060
sVGionelli
p1999
I2061
sVGoosecross Cellars
p2000
I3794
sVChateau Dereszla
p2001
I73
sVLalou Bize Leroy
p2002
I2063
sVQuinta das Arcas
p2003
I3864
sVPerissos Vineyard and Winery
p2004
I2065
sVDeviniere
p2005
I2066
sVCotes d'Olt
p2006
I3865
sVHandpicked
p2007
I2068
sVCantine de Falco
p2008
I2069
sVAllora Vineyards
p2009
I2070
sVGoriska Brda
p2010
I2071
sVChateau Noaillac
p2011
I2832
sVBodega Augusto Pulenta
p2012
I2072
sVSeignouret Freres
p2013
I2073
sVKjaer Sommerfeldt
p2014
I2074
sVDiamond Creek Vineyards
p2015
I2075
sVMadeira
p2016
I2076
sVSilkscarf
p2017
I2077
sVBodegas LAN
p2018
I2078
sVGiovanni Almondo
p2019
I2080
sVBella Luna
p2020
I2081
sVTerra Vitis
p2021
I119
sVJean Michel Gerin
p2022
I3870
sVMarco Porello
p2023
I2085
sVCave de Fronton
p2024
I2086
sVChateau La Haye
p2025
I38
sVCanteloup
p2026
I2088
sVAuvigue
p2027
I2089
sVMiddelvlei
p2028
I718
sVEpesses
p2029
I2092
sVChateau Modra
p2030
I2093
sVAristides
p2031
I2094
sVErste &amp; Neue
p2032
I2095
sVAugust Ziegler
p2033
I1758
sVArcadian
p2034
I2097
sVKindzmarauli
p2035
I2387
sVFattoria Nittardi
p2036
I2099
sVBennett Lane
p2037
I2100
sVCasal Garcia
p2038
I2101
sVDomaine De Bonserine
p2039
I2102
sVThe Crossings
p2040
I3188
sVEtienne Sauzel
p2041
I2104
sVChateau de Cerons
p2042
I2105
sVPanizzi
p2043
I2106
sVCanvas
p2044
I2107
sVZwolberich
p2045
I8
sVCasas del Toqui
p2046
I12
sVVermeil
p2047
I3189
sVLucien Lurton
p2048
I1227
sVAlamosa
p2049
I2112
sVDarby
p2050
I3195
sVMontigoli
p2051
I2114
sVGerard Schueller
p2052
I2115
sVFratelli Alessandria
p2053
I1868
sVMontelle
p2054
I2117
sVPierre Chavin
p2055
I2118
sVCharette
p2056
I2119
sVLulu Island
p2057
I2120
sVChateaau Segur
p2058
I2121
sVPietrafitta
p2059
I2122
sVEric Kent Wine Cellars
p2060
I98
sVJJ Vincent
p2061
I2124
sVWoolshed
p2062
I2125
sVLes Bourgeois
p2063
I2127
sVGVS Schachenmann
p2064
I2128
sVKnob Hall
p2065
I2129
sVDomaine Belleville
p2066
I136
sVMoccagatta
p2067
I2131
sVJindalee Estate
p2068
I2132
sVChateau La Commanderie
p2069
I2133
sVChateau Latour Martillac
p2070
I137
sVYsios
p2071
I2135
sVJean Marie Haag
p2072
I2136
sVGamba
p2073
I158
sVChateau Chauvin
p2074
I2138
sVA. Rafanelli
p2075
I167
sVMonte Santoccio
p2076
I1766
sVKonigschaffhausen
p2077
I180
sVOakridge
p2078
I2143
sVChateau Ducla
p2079
I2144
sVSean Thackrey
p2080
I2145
sVAta Rangi
p2081
I1142
sVVilla Bellangelo
p2082
I2943
sVCorzano E Paterno
p2083
I3881
sVSunstone
p2084
I1287
sVAdega de Moncao
p2085
I3544
sVGrove Mill
p2086
I2149
sVDante
p2087
I2150
sVSt Hallett
p2088
I2151
sVRoses De Jeanne
p2089
I2152
sVSaint Esteve
p2090
I2153
sVSoho
p2091
I2154
sVJoachim Flick
p2092
I2155
sVJean Belmont
p2093
I3093
sVValdipiatta
p2094
I2157
sVSaucelito Canyon
p2095
I2158
sVVino Mundi
p2096
I3197
sVNovas
p2097
I302
sVDomaine De Nalys
p2098
I2161
sVDi filippo
p2099
I2162
sVSchmelzer
p2100
I2163
sVFoppiano Vineyards
p2101
I2164
sVPirineos
p2102
I2165
sVEisacktaler Kellerei
p2103
I2166
sVDomaine Doudet
p2104
I2167
sVKnorhoek
p2105
I2481
sVPedro Romero
p2106
I1514
sVBodega Antigua Usanza
p2107
I355
sVSan Vito
p2108
I1806
sVSolar De Samaniego
p2109
I160
sVLe Grand Chai
p2110
I2173
sVCanoe Ridge
p2111
I2465
sVQuinta Do Estanho
p2112
I2175
sVBaron Del Cega
p2113
I2176
sVChateau Saint Andre
p2114
I2111
sVRavine Vineyard
p2115
I2179
sVKonecny
p2116
I2180
sVLegado Munoz
p2117
I3890
sVVaona
p2118
I2181
sVEmile Durand
p2119
I2182
sVLauca
p2120
I2183
sVRamon Bilbao
p2121
I2184
sVLi Veli
p2122
I2185
sVAndes
p2123
I4066
sVMcGregor Vineyard
p2124
I2187
sVMontoya
p2125
I2189
sVCastello Di Spessa
p2126
I2190
sVI Veroni
p2127
I2191
sVBenovia
p2128
I1747
sVSoter
p2129
I2193
sVFrassine
p2130
I2194
sVApothic
p2131
I399
sVTolley
p2132
I2195
sVLucie Et Auguste Lignier
p2133
I2686
sVFinca Villacreces
p2134
I2196
sVCantina Gabriele
p2135
I3938
sVLumiere
p2136
I2197
sVBarrel 27
p2137
I520
sVLa Forge Estate
p2138
I2200
sVM. Marengo
p2139
I2201
sVMontesole
p2140
I2203
sVHopler
p2141
I2204
sVTinazzi Tenuta Valleselle
p2142
I2205
sVTre Talenti
p2143
I2206
sVJoblot
p2144
I2207
sVTahuna
p2145
I2208
sVLevent
p2146
I3786
sVKlinker Brick
p2147
I2476
sVErich Meier
p2148
I586
sVPerey Chevreuil Moquet
p2149
I2211
sVSodap
p2150
I2212
sVTorrelongares
p2151
I2213
sVKellerei Kaltern Caldaro
p2152
I2214
sVPlancic
p2153
I2215
sVJames Cole
p2154
I2216
sVChateau La Tour Haut Brion
p2155
I2217
sVLayer Cake
p2156
I2218
sVGreekside
p2157
I2219
sVPunt Road
p2158
I625
sVFicklin Vineyards
p2159
I2091
sVMatasci
p2160
I2222
sVPulpit Rock
p2161
I637
sVYabby Lake Vineyard
p2162
I2224
sVVino Dei Fratelli
p2163
I2225
sVCabernet sauvignon
p2164
I3866
sVClaro
p2165
I663
sVLiberalia
p2166
I2230
sVAia Vecchia
p2167
I2231
sVZentralgenossenschaft
p2168
I2232
sVCastellari Bergaglio
p2169
I2233
sVMurari
p2170
I2234
sVChateau Bernadotte
p2171
I1821
sVKeenan
p2172
I2236
sVDominio IV
p2173
I2237
sVMontevannos
p2174
I979
sVRoyal Tokaji Wine Company
p2175
I346
sVCantine Di Ora
p2176
I2240
sVZabu
p2177
I2241
sVLourensord
p2178
I2242
sVPeique
p2179
I3110
sVKaapzicht Estate
p2180
I2243
sVRene De Lacray
p2181
I3141
sVMarquis De Greyssac
p2182
I2245
sVStaatsweingut Meersburg
p2183
I776
sVJohannishof
p2184
I2247
sVBernard Morey Et Fils
p2185
I2248
sVStowells
p2186
I2249
sVCest La Vie
p2187
I2250
sVMistral
p2188
I2251
sVDomaine Follin Arbelet
p2189
I2252
sVDomaine Alary
p2190
I2253
sVAntolini
p2191
I224
sVMas Que
p2192
I2255
sVBottega Vinaia
p2193
I813
sVPennautier
p2194
I2257
sVMarco De Bartoli
p2195
I2258
sVHenri Germain & Fils
p2196
I2259
sVChauvenet Chopin
p2197
I2260
sVLa Bastides
p2198
I2281
sVMont Du Toit
p2199
I2261
sVF. Protheau & Fils
p2200
I847
sVHubert Bouzereau Gruere Et Filles
p2201
I850
sVAurum
p2202
I2264
sVQuady Winery
p2203
I2265
sVLucia
p2204
I2580
sVCasar De Burbia
p2205
I872
sVCamus
p2206
I2267
sVFielding
p2207
I2268
sVCanalicchio
p2208
I3902
sVEnguera
p2209
I2269
sVStudier
p2210
I2270
sVDenis Dubourdieu Chateau Doisy Daene
p2211
I2271
sVFurlan
p2212
I922
sVJ Rochioli Vineyards
p2213
I2273
sVAdega Do Cantor
p2214
I2286
sVChateau Chante Alouette
p2215
I2274
sVComenge
p2216
I944
sVRound Pond Estate
p2217
I2276
sVValiano
p2218
I2984
sVLa Guardiense
p2219
I2278
sVDavid Moreno
p2220
I2279
sVTower Estate
p2221
I53
sVBonifacio
p2222
I975
sVSanto Wines
p2223
I2282
sVMarcus Janes
p2224
I2283
sVVina Santa Cruz
p2225
I2226
sVDogRidge
p2226
I274
sVNotre Dame
p2227
I2287
sVTiffans
p2228
I2288
sVMichel Coudroy
p2229
I3828
sVVigneti Galassi
p2230
I2289
sVPoggio Ai Santi
p2231
I2290
sVCharles De Valliere
p2232
I2291
sVDomaine Pierre Luneau Papin
p2233
I1104
sVGotberg
p2234
I2293
sVLetrari
p2235
I2294
sVLes Maitres
p2236
I1047
sVGalhaud
p2237
I2296
sVDomaine Berthoumieu
p2238
I2297
sVFattoria La Torre
p2239
I1152
sVCsanyi
p2240
I1155
sVChateau Camou
p2241
I1164
sVHommel
p2242
I2301
sVBercher Burkheim
p2243
I1186
sVBrand's Laira
p2244
I2303
sVFattoria Le Terrazze
p2245
I2304
sVHenri Darnat
p2246
I1200
sVSpringfield Estate
p2247
I2306
sVSpring Valley Vineayrd
p2248
I2307
sVBurge Family Winemakers
p2249
I2308
sVManfred Breit
p2250
I2309
sVLagunilla
p2251
I2491
sVDonnachiara
p2252
I2311
sVJosef Brigl
p2253
I2313
sVAndre Scherer
p2254
I2314
sVDomaine Gresser
p2255
I2315
sVBorgo
p2256
I1251
sVKleine Parys
p2257
I2317
sVPaumanok
p2258
I1062
sVDark Horse
p2259
I2319
sVJohanninger
p2260
I2320
sVVinedos Puertas
p2261
I2321
sVLa Tordera
p2262
I1279
sVBruichladdich
p2263
I2323
sVFalkner
p2264
I2324
sVDark Star
p2265
I1792
sVEugen Muller
p2266
I1310
sVLes Chais Beaucairois
p2267
I2327
sVFive Star Cellars
p2268
I2330
sVYarra Burn
p2269
I2329
sVDomaine Durieu
p2270
I977
sVWillow Crest
p2271
I1362
sVChronic Cellars
p2272
I2332
sVClaudius Morand
p2273
I2333
sVSt. Jodern Kellerei
p2274
I2334
sVChateau Pedesclaux
p2275
I3226
sVDomaine des Tours
p2276
I2335
sVLe Antiche Mura
p2277
I3638
sVSenorio De Sarria
p2278
I2336
sVRobert Gibourg
p2279
I2337
sVEsterlina
p2280
I2338
sVMannara
p2281
I2339
sVMaloy O Neill
p2282
I1454
sVChatter Creek
p2283
I2341
sVDomaine de Couron
p2284
I2342
sVGlenfiddich
p2285
I2343
sVStevens
p2286
I2344
sVLunadoro
p2287
I2345
sVLarrivaux
p2288
I3917
sVMaurice Carrie
p2289
I1046
sVBaglio Gibellina
p2290
I2349
sVFrancis Boulard
p2291
I2350
sVChateau Ferriere
p2292
I2351
sVDonnhoff
p2293
I2352
sVMaillard Pere & Fils
p2294
I2353
sVChocalan
p2295
I2354
sVCassini
p2296
I2355
sVDonati Family Vineyard
p2297
I2356
sVPierre Brevin
p2298
I2357
sVJosef Pockl
p2299
I2358
sVFenn Valley Vineyards
p2300
I2359
sVLas Puertas
p2301
I2360
sVDomaine Lorenzon
p2302
I2361
sVVentozelo
p2303
I2362
sVBodegas Corral
p2304
I1583
sVNove Vinarstvi
p2305
I2364
sVPeter Lauer
p2306
I2365
sVNino Franco
p2307
I2366
sVHuelken
p2308
I2367
sVAndesgrapes
p2309
I2368
sVHunter
p2310
I3921
sVMarquis de Saint Estephe
p2311
I2501
sVStanley Estates
p2312
I2371
sVKriter
p2313
I1623
sVAltenkirch
p2314
I1628
sVLittle Black Dress
p2315
I200
sVFrancois Carillon
p2316
I2375
sVWeltevrede
p2317
I2376
sVKollwentz
p2318
I2377
sVVictor Delauze
p2319
I2724
sVDr. Pauly Bergweiler
p2320
I2379
sVLa Valentina
p2321
I2380
sVLeon De Tarapaca
p2322
I2381
sVHesketh
p2323
I2382
sVLa Casaccia
p2324
I2383
sVConde De Caralt
p2325
I253
sVGuardian Peak
p2326
I2385
sVLaborie Estate Wine
p2327
I2386
sVMonte Pietroso
p2328
I1730
sVChateau Duhart Milon
p2329
I1737
sVPeterson House
p2330
I2390
sVQuinta do Passadouro
p2331
I2391
sVMarietta
p2332
I2392
sVMontezovo
p2333
I2393
sVDelor
p2334
I3465
sVCardinale
p2335
I1037
sVWeinmanufaktur Unterturkheim
p2336
I2396
sVThe Goats Do Roam
p2337
I2506
sVCascina Adelaide
p2338
I2398
sVSea Smoke
p2339
I2399
sVClaude Chonion
p2340
I2400
sVL Union Des Vignerons
p2341
I1793
sVFuchs
p2342
I2402
sVDomaine Jean Monnier & Fils
p2343
I2403
sVKWV Wines
p2344
I3926
sVChateau L'Angelus
p2345
I3235
sVClarendelle
p2346
I1826
sVColmar
p2347
I3927
sVKorrell Johanneshof
p2348
I2407
sVLa Campagne
p2349
I2408
sVLivia Fontana
p2350
I2082
sVMidalidare
p2351
I1846
sVCuvelier Los Andes
p2352
I2412
sVJankris
p2353
I2413
sVTschida
p2354
I1816
sVChateau Siaurac
p2355
I2415
sVThe Islander
p2356
I2416
sVSuzin
p2357
I2417
sVBodegas Crotta
p2358
I3933
sVChateau De Marsan
p2359
I1943
sVLaimburg
p2360
I3222
sVKindzmarauli Marani
p2361
I2420
sVWhitehall Lane Winery & Vineyards
p2362
I2421
sVCaelum
p2363
I3237
sVManuel Olivier
p2364
I2422
sVArianna Occhipinti
p2365
I1929
sVLa Maltroye
p2366
I2424
sVPeter Jacob Kuhn
p2367
I2425
sVMonasterio
p2368
I2426
sVAltair
p2369
I3064
sVAchkarren
p2370
I2427
sVFrancois Schmitt
p2371
I2428
sVBrookfields
p2372
I1974
sVBassi
p2373
I855
sVLarson
p2374
I2431
sVDi Arie
p2375
I2903
sVGrace Winery
p2376
I2432
sVChris Ringland
p2377
I1975
sVTenuta di Arceno
p2378
I3241
sVManoel Pocas Junior
p2379
I2436
sVRuitersvlei
p2380
I2513
sVGramercy Cellars
p2381
I2438
sVDr.Deinhard
p2382
I2440
sVTiago Cabaco
p2383
I2441
sVJefferson
p2384
I2037
sVGroenland
p2385
I2443
sVSan Michele A Torri
p2386
I2444
sVVina Peralillo
p2387
I2445
sVQuinta do Crasto
p2388
I2446
sVChateau La Verrerie
p2389
I2447
sVHolzfass Gereift
p2390
I2448
sVDancing Bull
p2391
I2449
sVFassini
p2392
I2451
sVMiro
p2393
I2452
sVChateau Megyer
p2394
I2453
sVTayac
p2395
I2098
sVL.Tramier & Fils
p2396
I2455
sVFranck Bonville
p2397
I2817
sVChateau D Agel
p2398
I2456
sVChateau L'Evangile
p2399
I2457
sVHenri Jayer
p2400
I2458
sVFinca Constancia
p2401
I3190
sVKunin
p2402
I483
sVApolloni Vineyards
p2403
I2461
sVFlam
p2404
I2462
sVCastel Faglia
p2405
I2463
sVKastell
p2406
I2464
sVChapel Down
p2407
I2174
sVTollinche Freres
p2408
I2466
sVCharles Cimicky
p2409
I2467
sVDavis Byrum
p2410
I2468
sVCantina Di Montalcino
p2411
I3248
sVLa Gerla
p2412
I2471
sVBodegas Patrocinio
p2413
I2472
sVWillamette Valley
p2414
I2473
sVScarpantoni
p2415
I2475
sVAtlas Peak
p2416
I2209
sVSiegrist
p2417
I2477
sVHuff Estates
p2418
I2478
sVMr. Riggs
p2419
I2479
sVSaiagricola
p2420
I2480
sVBodegas Penafiel
p2421
I1548
sVDunn Vineyards
p2422
I2482
sVMatteo Correogia
p2423
I2483
sVSottimano
p2424
I2484
sVThe Terraces
p2425
I3925
sVChateau Mercier
p2426
I3251
sVUberti
p2427
I2486
sVYeringberg
p2428
I3252
sVMauro Molino
p2429
I2488
sVChandler Hill
p2430
I2489
sVDon Rodolfo Vina Cornejo Costas
p2431
I2490
sVChateau Moncontour
p2432
I1280
sVDomaine La Barroche
p2433
I1086
sVGalen Glen
p2434
I2493
sVGoose Ridge
p2435
I2494
sVCarussin
p2436
I2328
sVLammershoek
p2437
I2496
sVCellier Des Samsons
p2438
I2497
sVOak Knoll
p2439
I2498
sVNaked Grape
p2440
I2579
sVHidalgo
p2441
I2499
sVConti Neri
p2442
I3020
sVMontaria
p2443
I2500
sVMalondro
p2444
I2370
sVChateau Coufran
p2445
I2502
sVMustiguillo
p2446
I2504
sVChateau Segonzac
p2447
I2505
sVRedondo
p2448
I2397
sVAltamura
p2449
I2507
sVSacha Lichine
p2450
I2508
sVJean Boillot & Fils
p2451
I2509
sVMullenbach
p2452
I2510
sVEvening Land
p2453
I3354
sVDurigan
p2454
I2738
sVThomas Rath
p2455
I2988
sVCollina Del Sole
p2456
I2512
sVPicpoul De Pinet
p2457
I2437
sVChateau Petit Village
p2458
I2514
sVDos Cabezas Wine Works
p2459
I2515
sVChateau L'Enclos
p2460
I2516
sVDomaine Robert Arnoux
p2461
I2517
sVCastello del Terriccio
p2462
I2518
sVOlivier Ravoire
p2463
I2519
sVBodegas Vega Sauco
p2464
I2521
sVL Etoile
p2465
I2523
sVDomaine de Chevalier
p2466
I2524
sVTenuta Di Tavignano
p2467
I2525
sVAdrien Bertaillan
p2468
I1089
sVSaint Benoit
p2469
I4059
sVDelta
p2470
I2527
sVIoppa
p2471
I2528
sVMatthews
p2472
I2529
sVCastellare Di Castellina
p2473
I2530
sVHawkes
p2474
I2531
sVRendola
p2475
I2228
sVLa Presidente
p2476
I2533
sVEmile Beyer
p2477
I2534
sVBilbainas
p2478
I2535
sVBodega del Palacio de Los Frontaura Y Victoria
p2479
I2536
sVStifts Klosterneuburg
p2480
I2537
sVPiqueras
p2481
I3946
sVRoar
p2482
I2538
sVPic Saint Loup
p2483
I2539
sVPoletti
p2484
I2540
sVCaspari
p2485
I3949
sVChateau Jolys
p2486
I3090
sVGranite Ridge
p2487
I2542
sVRobbers En Van Den Hoogen
p2488
I2543
sVChateau Yon Figeac
p2489
I1431
sVLe Petit
p2490
I1834
sVSoldo
p2491
I2545
sVSurh Luchtel
p2492
I2546
sVVincent Dauvissat
p2493
I2548
sVBottwartaler
p2494
I2549
sVTerra Burdigala
p2495
I2550
sVLa Propriete
p2496
I2419
sVBodega del Fin del Mundo
p2497
I2552
sVDomaine Bunan
p2498
I398
sVCasa Emma
p2499
I1836
sVReverdito Michele
p2500
I2554
sVAlexander
p2501
I2555
sVDomaine Des Deux Roches
p2502
I2556
sVAdega Cooperativa de Vidigueira
p2503
I2557
sVAgostino Pavia Figli
p2504
I2558
sVBodegas Arrocal
p2505
I2559
sVVieux Chateau Gaubert
p2506
I3622
sVPiagentini
p2507
I2561
sVValmarino
p2508
I2562
sVJaubert
p2509
I2563
sVChateau Golan
p2510
I2325
sVHacienda
p2511
I3944
sVA.R. Valdespino
p2512
I2564
sVMeadowcroft
p2513
I3672
sVPrinthie
p2514
I2565
sVClos Des Jacobins
p2515
I2566
sVLa Torricella
p2516
I3556
sVWegenstein
p2517
I2567
sVChateau La Tour de By
p2518
I2568
sVCabreo
p2519
I2569
sVWoodhouse Family
p2520
I3955
sVMount Riley
p2521
I787
sVJosef Valibrach
p2522
I2573
sVBovlei
p2523
I2574
sVSchola Sarmenti
p2524
I199
sVGiro Ribot
p2525
I2576
sVLa Poderina
p2526
I2577
sVMarramiero
p2527
I3959
sVAcacio
p2528
I2578
sVS Javouhey
p2529
I2148
sVLa Cacciatore
p2530
I1393
sVBranham
p2531
I2581
sVJean Vullien & Fils
p2532
I2109
sVQuinta De Ventozelo
p2533
I2583
sVMichel Sarrazin et Fils
p2534
I2584
sVDosio
p2535
I2585
sVDomaine Charvin
p2536
I2586
sVClark Claudon
p2537
I3780
sVWwe. Dr. H. Thanisch
p2538
I2588
sVLavagnac
p2539
I2589
sVVerrocchio
p2540
I2590
sVChateau Clerc Milon
p2541
I2591
sVAmpelidae
p2542
I2592
sVAndre Dussourt
p2543
I3753
sVMartina
p2544
I2594
sVHallauer
p2545
I2595
sVLucien Et Andre Brunel
p2546
I2596
sVMassimo
p2547
I2597
sVCascina Ghercina
p2548
I2598
sVAlvaro Domecq
p2549
I2599
sVBosco Malera
p2550
I3274
sVDominio de Eguren
p2551
I2601
sVAagne
p2552
I581
sVHenri Bourlon
p2553
I2603
sVSilvio Nardi
p2554
I2604
sVDomaine Richaud
p2555
I2605
sVVinhos Sogrape
p2556
I2606
sVKeswick Vineyards
p2557
I2607
sVCostaripa
p2558
I2608
sVMendocino
p2559
I2331
sVErzherzog Johann
p2560
I2609
sVMarmandais
p2561
I2610
sVLes Trois
p2562
I2611
sVChateau d'Arcins
p2563
I4117
sVChampalou
p2564
I2612
sVTapestry
p2565
I2613
sVWalnut Crest
p2566
I2614
sVRegina Coeli
p2567
I2615
sVKolkmann
p2568
I2616
sVJoie Wines
p2569
I2617
sVFrancesco Rinaldi & Figli
p2570
I2618
sVCentennial
p2571
I3821
sVFerruccio Deiana
p2572
I2619
sVTerralsole
p2573
I2620
sVSuoi
p2574
I2621
sVLes Heritiers Du Comte Lafon
p2575
I2622
sVSaint Gall
p2576
I2623
sVSarria
p2577
I2624
sVCoastal Ridge
p2578
I1660
sVPierre Jourdan
p2579
I2626
sVLes Vignerons de Sigoules
p2580
I1314
sVCatalans
p2581
I2628
sVFlying Fox Vineyard
p2582
I2629
sVChateau Ricardelle
p2583
I2630
sVCasalfarneto
p2584
I2631
sVRutherglen Estates
p2585
I2632
sVJerome Sordet
p2586
I414
sVD'Orschwihr
p2587
I2634
sVChateau Pierrail
p2588
I2635
sVChantal
p2589
I2636
sVLes Caracteres
p2590
I2637
sVJean Michel Alquier
p2591
I2638
sVLaurel Glen Vineyard
p2592
I2639
sVClover Hill Vineyards & Winery
p2593
I2640
sVZimmermann Graeff
p2594
I2641
sVAndreola
p2595
I2643
sVPessagno
p2596
I1849
sVWhite Stone
p2597
I2646
sVEugene Carrel Et Fils
p2598
I2647
sVHeron
p2599
I2648
sVValle Reale
p2600
I2649
sVDonkey and Goat
p2601
I2650
sVBlack Ridge Vineyard
p2602
I2651
sVTourelles
p2603
I2652
sVMoulin De Dusenbach
p2604
I2653
sVHatcher
p2605
I2654
sVNavarro
p2606
I2655
sVMonaci
p2607
I2656
sVOlivier Tricon
p2608
I2657
sVIl Papavero
p2609
I2658
sVWatermill
p2610
I585
sVCascina Val Del Prete
p2611
I2660
sVPaxton
p2612
I2661
sVChateau Fonchereau
p2613
I2662
sVCanciller
p2614
I2663
sVOak Grove
p2615
I2664
sVCaves Orsat
p2616
I2665
sVDomaine Rollin Pere & Fils
p2617
I2666
sVQuintus
p2618
I2667
sVCollovray & Terrier
p2619
I2668
sVCave de Monbazillac
p2620
I2865
sVPaolo Saracco
p2621
I2669
sVMoulin De La Roque
p2622
I2670
sVRoger Lassarat
p2623
I2671
sVSaint Jean d'Ardieres
p2624
I2672
sVDomaine Sainte Anne
p2625
I3085
sVMaillard
p2626
I2674
sVCarles
p2627
I2675
sVDeux Soleils
p2628
I3518
sVMarques De Chasse
p2629
I2677
sVLorentz
p2630
I2678
sVChateau De Bellevue
p2631
I2679
sVCarlei
p2632
I2680
sVGregory Graham
p2633
I2681
sVFeatherstone
p2634
I2682
sVForty Five North
p2635
I2683
sVLa Janasse
p2636
I2684
sVVina Varela Zarranz
p2637
I543
sVChateau Magdelaine
p2638
I1683
sVDal Forno Romano
p2639
I2688
sVBernard Moreau Et Fils
p2640
I2689
sVBodegas Domecq
p2641
I2690
sVGanton Larsen Prospect Winery
p2642
I2691
sVRoy Estate
p2643
I2692
sVCantina del Taburno
p2644
I2693
sVCasa Fundada
p2645
I2694
sVBailly Lapierre
p2646
I2695
sVMaby
p2647
I2551
sVDal Cero
p2648
I2698
sVAlexandre Relvas
p2649
I2699
sVMarc Rougeot Dupin
p2650
I2700
sVBarwick Estates
p2651
I2701
sVFiore
p2652
I2702
sVBonneau
p2653
I2346
sVMarguet Pere Fils
p2654
I2704
sVFruitiere De Voiteur
p2655
I3974
sVPisoni
p2656
I2706
sVCosta De Oro
p2657
I2707
sVMedaillon
p2658
I3040
sVBridgman
p2659
I2709
sVGiovanni Chiappini
p2660
I2710
sVOne Hope
p2661
I1124
sVCigliuti
p2662
I554
sVBenoit Lahaye
p2663
I2713
sVDomaine Richeaume
p2664
I2714
sVAlbert Ponnelle
p2665
I2715
sVDomaine Saint Prefert
p2666
I2716
sVBenziger
p2667
I2717
sVLamblin & Fils
p2668
I2718
sVStonier
p2669
I2719
sVDomaine G Roumier
p2670
I2720
sVDelaplane
p2671
I3819
sVAracuri
p2672
I3292
sVChateau Lafite Monteil
p2673
I2723
sVShiloh
p2674
I2553
sVComte Louis De Clermont Tonnerre
p2675
I2725
sVCasali Viticultori
p2676
I2726
sVIsabella
p2677
I60
sVChamard Vineyards
p2678
I2728
sVChateau Haut Mazeris
p2679
I2729
sVRolly Gassmann
p2680
I2730
sVDecima
p2681
I2731
sVCasa Cadaval
p2682
I2732
sVNobili Palazzoli
p2683
I2733
sVHirsch Vineyards
p2684
I2734
sVLini 910
p2685
I1843
sVTobacco Road
p2686
I2736
sVJ.P. Chenet
p2687
I2737
sVWolffer Estate
p2688
I2439
sVLisini
p2689
I2739
sVThalvin
p2690
I2740
sVChateau La Couronne
p2691
I2741
sVLambuena
p2692
I2742
sVFattoria del Cerro
p2693
I2743
sVBosman
p2694
I2745
sVCantina Mesa
p2695
I2746
sVCastejon
p2696
I2747
sVCanata
p2697
I2748
sVTall Horse
p2698
I2749
sVLa Remeieanne
p2699
I3297
sVPech Celeyran
p2700
I2751
sVBaileyana
p2701
I2752
sVChateau Lilian Ladouys
p2702
I2753
sVFlorian Beck Hartweg
p2703
I2460
sVChateau Philippe Le Hardi
p2704
I4210
sVIbanez
p2705
I2754
sVGraham
p2706
I2755
sVCedric Flaction
p2707
I2277
sVChene
p2708
I4153
sVPopova Kula Winery
p2709
I2757
sVGWF
p2710
I2758
sVSaxon Brown
p2711
I2759
sVCa Dei Mandorli
p2712
I3776
sVMandrarossa
p2713
I2760
sVVie de Romans
p2714
I2430
sVVynecrest
p2715
I2761
sVMarsuret
p2716
I2762
sVSonoma Coast Vineyards
p2717
I2763
sVBiblia Chora
p2718
I2765
sVSymphonie
p2719
I2766
sVDomaine Verret
p2720
I2767
sVBelliviere
p2721
I2769
sVGiacomo Grimaldi
p2722
I2770
sVDomaine Combier
p2723
I2771
sVFiresteed
p2724
I2772
sVInfinitus
p2725
I2774
sVChateau Du Glana
p2726
I3982
sVGrand Chemin
p2727
I2776
sVGumdale
p2728
I2777
sVFrederic Engel & Fils
p2729
I1874
sVAchaia Clauss
p2730
I1957
sVMateus
p2731
I2780
sVEmilio Hidalgo
p2732
I3493
sVDona Berta
p2733
I2782
sVChateau Siran
p2734
I2783
sVHungarovin
p2735
I2784
sVHenry Estate
p2736
I2571
sVPortal
p2737
I4122
sVGrey Wolf
p2738
I3303
sVDupere Barrera
p2739
I2789
sVCarpineta Fontalpino
p2740
I2790
sVDomaine de Fondreche
p2741
I2791
sVDavid Fourtout
p2742
I1877
sVDomaine Wardy
p2743
I2793
sVCarter Cellars
p2744
I2794
sVLa Milagrosa
p2745
I2795
sVHahnmuhle
p2746
I2796
sVHecht & Bannier
p2747
I2797
sVEdouard Delaunay
p2748
I2798
sVLednice
p2749
I2799
sVKing Estate
p2750
I2800
sVFabricat In Moldova
p2751
I3182
sVChateau Labegorce Zede
p2752
I2802
sVLuberri
p2753
I2803
sVVilla Cervia
p2754
I2374
sVZiereisen
p2755
I2805
sVVina Salceda
p2756
I2806
sVFilippo Gallino
p2757
I2807
sVBrygon Reserve
p2758
I1634
sVCastello Di Neive
p2759
I2809
sVQuinta do Encontro
p2760
I2810
sVPoesia
p2761
I2811
sVMichel
p2762
I2812
sVDuca Della Rocca
p2763
I23
sVCharles Creek
p2764
I2814
sVMacRostie
p2765
I2815
sVDemessey
p2766
I36
sVTribut Laurent
p2767
I40
sVChateau D'Escurac
p2768
I2818
sVD'Isanto & D'Isanto
p2769
I2819
sVDino
p2770
I2820
sVWattle Creek
p2771
I51
sVOstoros Bor
p2772
I66
sVPeterlongo
p2773
I2824
sVPrincipe Di Corleone
p2774
I2825
sVLinden Estate
p2775
I84
sVEscorihuelas Gascon
p2776
I2827
sVDomaine Denis Mortet
p2777
I3043
sVSan Patrignano
p2778
I2829
sVChateau Rabaud Promis
p2779
I3989
sVLos Vascos
p2780
I2831
sVHeinz Pfaffmann
p2781
I124
sVNewport Vineyards
p2782
I2833
sVTenuta La Tenaglia
p2783
I2411
sVCave Ardevaz
p2784
I2835
sVChateau du Moulin Rouge
p2785
I2836
sVGalante Vineyards
p2786
I135
sVChateau St. Julien D'Aille
p2787
I2838
sVChateau Cambon La Pelouse
p2788
I2839
sVBeau Site Haut Vignoble
p2789
I2840
sVChateau Pontet
p2790
I2841
sVGrand Barrail
p2791
I1588
sVHensel
p2792
I605
sVMarisa Cuomo
p2793
I1787
sVCeller Cal Pla
p2794
I2846
sVLos Teros
p2795
I2847
sVSouverain
p2796
I2848
sVFlorio
p2797
I2849
sVGerard Tremblay
p2798
I2850
sVDelas
p2799
I2851
sVBonvin Et Varone
p2800
I2170
sVTrapan
p2801
I2853
sVSan Clemente
p2802
I2854
sVVerite
p2803
I227
sVAlmaunica
p2804
I2856
sVZanini
p2805
I2857
sVSan Nicola
p2806
I2858
sVMas Comtal
p2807
I2859
sVLa Peira En Damaisela
p2808
I1597
sVCasa cadaval
p2809
I2860
sVLe Grand
p2810
I2861
sVVilla Montefiori
p2811
I275
sVCervoles
p2812
I2768
sVAntugnac
p2813
I286
sVCantine Lunae Bosoni Circus
p2814
I1893
sVPierre Spare
p2815
I2866
sVMancey
p2816
I2572
sVPierre Henri Ginglinger
p2817
I2868
sVJ. Moreau &amp; Fils
p2818
I1886
sVMontelvini
p2819
I2870
sVRiddoch
p2820
I2871
sVPavillon
p2821
I2872
sVEclipse
p2822
I2874
sVVilla Canestrari
p2823
I2875
sVBernard Lagarrigue
p2824
I736
sVAshbrook Estate
p2825
I2877
sVVincent Bachelet
p2826
I340
sVBodegas Santa Rufina
p2827
I2879
sVRaphael
p2828
I3430
sVHonorio Rubio
p2829
I3997
sVBougrier
p2830
I2882
sVChateau Eugenie
p2831
I2883
sVCeller Vall Llach
p2832
I392
sVLos Rosales
p2833
I2885
sVGlenwood
p2834
I1571
sVDewaal
p2835
I401
sVCaves Santa Marta
p2836
I404
sVVitavin
p2837
I2889
sVLes Caves
p2838
I3289
sVWoodbridge
p2839
I2891
sVHearst Ranch Winery
p2840
I2941
sVMarkham Vineyards
p2841
I2096
sVJ. Heinrich
p2842
I2892
sVViejo Vinedo
p2843
I2575
sVMichel Leon
p2844
I2894
sVManns
p2845
I2895
sVVagnoni
p2846
I2897
sVCallaway Vineyard & Winery
p2847
I2898
sVMauler
p2848
I2899
sVRare Vineyards
p2849
I1702
sVRiecine
p2850
I2901
sVChateau Chantal
p2851
I493
sVVictor Hugo
p2852
I2511
sVLandon
p2853
I2904
sVChateau Topolcianky
p2854
I2905
sVGrand Caumont
p2855
I2703
sVLa Tour Boisee
p2856
I3320
sVKopp Von Der Crone Visini
p2857
I2908
sVBremer
p2858
I539
sVMaison Sichel
p2859
I2910
sVDomaine Parigot
p2860
I2911
sVQuinta do Vallado
p2861
I1513
sVBarwang
p2862
I694
sVGemstone
p2863
I2914
sVTenuta Ca' Bolani
p2864
I2915
sVMatrix
p2865
I2916
sVSan Rustico
p2866
I3387
sVPaolo Conterno
p2867
I599
sVHawk Crest
p2868
I2920
sVStone Mountain
p2869
I608
sVVin Du Lac
p2870
I2922
sVValdobbliadene
p2871
I2923
sVValdibella
p2872
I623
sVSanta Tresa
p2873
I624
sVGrupo Principe de Viana
p2874
I627
sVAmiot Servelle
p2875
I2927
sVKatarzyna Estate
p2876
I2928
sVCasa Gualda
p2877
I2929
sVQuinta Da Lixa
p2878
I2930
sVMasseria Frattasi
p2879
I1437
sVNatalies
p2880
I2932
sVRubissow
p2881
I2582
sVMony
p2882
I2934
sVRaptor Ridge
p2883
I2935
sVEugenio Bustos
p2884
I2936
sVBurrowing Owl
p2885
I2937
sVValle Secreto Vineyards Winery
p2886
I696
sVLejeune
p2887
I3324
sVAllee Bleue
p2888
I2940
sVLa Posta
p2889
I1972
sVGiovanni Cherchi
p2890
I1021
sVCave de Pedra
p2891
I719
sVEsk Valley
p2892
I2944
sVConsilience
p2893
I2945
sVQuinta do Casal Branco
p2894
I2946
sVCamplazens
p2895
I2947
sVDomingo Molina
p2896
I2948
sVMario Giribaldi
p2897
I2949
sVLe Rocche Malatestiane
p2898
I2950
sVMichele Satta
p2899
I2951
sVVina Quebrada de Macul
p2900
I2952
sVCella
p2901
I764
sVVega Tolosa
p2902
I3201
sVKen Wright Cellars
p2903
I2954
sVJohannes Egberts
p2904
I2955
sVSan Sebastian
p2905
I2956
sVL'Enclave
p2906
I2957
sVCave Du Chateau De Chenas
p2907
I781
sVMarques De Vargas
p2908
I2547
sVDomaine Chevalier Pere & Fils
p2909
I2960
sVCincinnato
p2910
I791
sVCampos Goticos
p2911
I3636
sVJacques Frederic Mugnier
p2912
I2962
sVEral Bravo
p2913
I2963
sVHyatt
p2914
I4009
sVBruno Colin
p2915
I2965
sVKrebs Grode
p2916
I2966
sVQuerbach
p2917
I2967
sVCarlin De Paolo
p2918
I829
sVUnison Vineyard
p2919
I2969
sVAlempue Pro
p2920
I2113
sVChateau Ramage La Batisse
p2921
I3724
sVWunderlich
p2922
I2971
sVRooiberg Winery
p2923
I2972
sVPertaringa
p2924
I2973
sVFina
p2925
I2974
sVSur De Los Andes
p2926
I2975
sVPaul Achs
p2927
I2976
sVDeutscher Pradikatswein
p2928
I4010
sVGuglielmo
p2929
I2978
sVTenuta Rocca
p2930
I2979
sVCellier Des Templiers
p2931
I898
sVRaices
p2932
I2981
sVHumbeto Canale
p2933
I2982
sVBaden Badener
p2934
I2983
sVCarlo Giacosa
p2935
I3606
sVGoretti
p2936
I1907
sVAhlgren
p2937
I2985
sVChalten
p2938
I2986
sVLa Cote
p2939
I243
sVMelrose
p2940
I948
sVJean Pierre
p2941
I4014
sVF.X. Pichler
p2942
I2990
sVVigneti Massa
p2943
I2991
sVInnocent Bystander
p2944
I968
sVBernardus
p2945
I463
sVJean Lafitte
p2946
I986
sVDomaine des Deux Soleils
p2947
I3970
sVDomaine Les Yeuses
p2948
I3330
sVIppolito 1845
p2949
I2996
sVDomados
p2950
I2997
sVMartins
p2951
I2999
sVLe Coste
p2952
I3000
sVPaul Buecher
p2953
I3001
sVPeter Yealands
p2954
I3002
sVCalifornia Cult Classics
p2955
I3003
sVCastello
p2956
I1065
sVTerroir
p2957
I3005
sVLes Celliers
p2958
I3006
sVDomaine Boudau
p2959
I3007
sVChateau Trimoulet
p2960
I3009
sVLa Campana
p2961
I3010
sVBreggo
p2962
I3011
sVFont Sante
p2963
I3012
sVMaschio Dei Cavalieri
p2964
I1094
sVS.A. Trilles
p2965
I3014
sVCantaluna
p2966
I1112
sVDomaine De Sahari
p2967
I3016
sVScriani
p2968
I3017
sVWeingut Ernst Bretz
p2969
I4018
sVBarton
p2970
I3019
sVCorette
p2971
I1129
sVMatthias Muller
p2972
I148
sVD Or Et De Gueules
p2973
I3023
sVSt. Martin
p2974
I3024
sVKellermeister
p2975
I1157
sVWeingut Toni Jost
p2976
I3026
sVCasal Branco
p2977
I1166
sVWhite Oak Vineyards
p2978
I3028
sVPapi
p2979
I3029
sVSchnaitmann
p2980
I2156
sVChateau Haut Maillet
p2981
I1184
sVKillerby
p2982
I3032
sVBonnaire
p2983
I3033
sVCasa Safra
p2984
I3034
sVJeninser
p2985
I3035
sVBodgea Dehesa De Los Canonigos
p2986
I3036
sVBajoz
p2987
I3037
sVLergenmuller
p2988
I1225
sVChateau Peyruchet
p2989
I3039
sVDromana Estate
p2990
I2450
sVErcolani
p2991
I1916
sVTeillery
p2992
I3042
sVDe Forville
p2993
I1693
sVChateau Lamartine
p2994
I4134
sVLuce della Vite
p2995
I3046
sVPierre Henri
p2996
I3047
sVAltue
p2997
I3048
sVCima Collina
p2998
I3336
sVLataste
p2999
I3050
sVChrister Berens
p3000
I3051
sVBodegas y Vinedos
p3001
I3052
sVChapelle Du Bois
p3002
I3053
sVVinatigo
p3003
I3054
sVJustino's
p3004
I3055
sVCa Donini
p3005
I3056
sVNeo
p3006
I3057
sVGrove Estate
p3007
I3058
sVWellanschitz
p3008
I3059
sVBodegas Ismael Arroyo
p3009
I3060
sVTrader Joes
p3010
I1341
sVMartini Rossi
p3011
I3063
sVSan Simeon
p3012
I844
sVLe Bonheur
p3013
I3065
sVIl Borro
p3014
I3066
sVCooper Vineyards
p3015
I3067
sVWild Coyote
p3016
I1376
sVVicari
p3017
I1380
sVEstacion
p3018
I3070
sVMara
p3019
I1920
sVThe Seeker
p3020
I3072
sVBasignani
p3021
I3073
sVFranck Massard
p3022
I3074
sVPradio
p3023
I3075
sVRenato Corino
p3024
I3076
sVPenedo Borges
p3025
I3077
sVMajella
p3026
I4029
sVTapada Do Chaves
p3027
I1436
sVTres Hermanas
p3028
I3081
sVHaan
p3029
I2495
sVSagrada
p3030
I3082
sVLeelanau
p3031
I3083
sVPaul Garaudet
p3032
I3084
sVTittarelli
p3033
I2673
sVSierra Salinas
p3034
I2804
sVCastello Romitorio
p3035
I3087
sVGreek Wine Cellars
p3036
I3727
sVPorter Creek
p3037
I3088
sVErnst Gouws & Co
p3038
I1191
sVDe Trafford
p3039
I3091
sVTsarine
p3040
I3092
sVIndaba
p3041
I523
sVHerdade Grande
p3042
I3094
sVSanctuary
p3043
I3095
sVPaitin di Pasquero Elia
p3044
I3096
sVMonte Rossa
p3045
I2469
sVDu Mas Blanc
p3046
I3098
sVCavaliere
p3047
I2526
sVToro Loco
p3048
I3100
sVDomaine Lafond
p3049
I3101
sVEscarpment
p3050
I4036
sVDomaine de Cabasse
p3051
I3103
sVAnsitz Waldgries
p3052
I3104
sVJohn Anthony
p3053
I3105
sVRafael Palacios
p3054
I2348
sVMezquiriz
p3055
I1629
sVBuchegger
p3056
I3108
sVPreston
p3057
I1637
sVRomeral
p3058
I2602
sVSheldrake Point
p3059
I3111
sVClaude And Isabel Fonquerle
p3060
I3112
sVMignot
p3061
I3113
sVDomaine De La Chapelle
p3062
I3114
sVVinedos Y Bodegas Pablo
p3063
I3115
sVDandelion Vineyards
p3064
I3116
sVPalazzo Dei Signori
p3065
I3117
sVVega Del Castillo
p3066
I3118
sVDomaine de la Truffiere
p3067
I3119
sVBedell
p3068
I3120
sVNovy Family
p3069
I3796
sVStatti
p3070
I3121
sVCasas Del Toqur
p3071
I712
sVPierre Matrot
p3072
I3123
sVChristophe Vaudoisey
p3073
I3124
sVGiuseppe Sedilesu
p3074
I3125
sVMackinaw Trail
p3075
I3126
sVVerum
p3076
I3127
sVMount Baker
p3077
I3128
sVConte Lorenzo Sormani
p3078
I3129
sVOpera Prima
p3079
I3130
sVMurphy Goode
p3080
I3131
sVLoring Wine Company
p3081
I1769
sVDomaine Poisot
p3082
I3133
sVAalto
p3083
I1776
sVBoordy
p3084
I1781
sVLoredan Gasparini
p3085
I3136
sVArtemovsk
p3086
I1932
sVHeribert Boch
p3087
I3138
sVCaves des Hautes Cotes
p3088
I3140
sVClos Du Roy
p3089
I1819
sVOlga Raffault
p3090
I4039
sVGraf Hardegg
p3091
I490
sVWilliam Church
p3092
I3145
sVAndre Quancard
p3093
I3146
sVDogma
p3094
I3851
sVCasa Geraldo
p3095
I3147
sVListel
p3096
I3148
sVCourbis
p3097
I3149
sVGala
p3098
I3411
sVAngullong
p3099
I3150
sVMitchell Katz
p3100
I3151
sVSu Vino Winery
p3101
I1891
sVPalmer & Co
p3102
I3153
sVIcicle Ridge
p3103
I3154
sVPage Cellars
p3104
I3155
sVDomaine Daniet Rion & Fils
p3105
I1924
sVFondo Antico
p3106
I3157
sVPallhuber
p3107
I3158
sVDe Lucca
p3108
I3159
sVPrince Arpad
p3109
I3160
sVNizza
p3110
I3161
sVZandvliet
p3111
I3162
sVGemtree Vineyards
p3112
I251
sVCecchetti
p3113
I1466
sVAlban Vineyards
p3114
I1973
sVDauvergne Ranvier
p3115
I410
sVHafner
p3116
I3167
sVLa Rochelle
p3117
I3168
sVPizzolato
p3118
I3025
sVChateau La Coste
p3119
I3169
sVCantavida
p3120
I3170
sVChateau Duplessis
p3121
I3171
sVMullineux
p3122
I3172
sVGracia
p3123
I3062
sVWilhelm Bergmann
p3124
I3174
sVMonte Tondo
p3125
I3175
sVJos. Christoffel Jr.
p3126
I1856
sVDomaine Andre Kientzler
p3127
I3177
sVCasata Monfort
p3128
I2056
sVBrunori
p3129
I3180
sVChantarel
p3130
I3355
sVRoss Estate
p3131
I3183
sVChateau Lynch Moussas
p3132
I3184
sVPrincipe Pallavicini
p3133
I3185
sVCampos De Solana
p3134
I3186
sVAlain Jeanniard
p3135
I3187
sVCapendu
p3136
I2103
sVKlein Steenberg
p3137
I2918
sVWitness Tree Vineyard
p3138
I1680
sVDraytons
p3139
I363
sVFontana Di Papa
p3140
I320
sVErik Banti
p3141
I3193
sVMeyer Jean Luc
p3142
I3194
sVStein
p3143
I2384
sVHosmer
p3144
I1872
sVMelipal
p3145
I2159
sVTasca D Almerita
p3146
I3198
sVI Giusti & Zanza
p3147
I3199
sVChateau Lalande
p3148
I3200
sVAmouriers
p3149
I2177
sVGitton Pere Fils
p3150
I2186
sVFalset Marca
p3151
I4048
sVClaudy Clavien
p3152
I4176
sVMike Press
p3153
I3660
sVBodri
p3154
I3204
sVDomaine Billard Gonnet
p3155
I3205
sVGries
p3156
I3206
sVParent
p3157
I3207
sVVina Ventisquero
p3158
I3208
sVPrimicia
p3159
I37
sVLa Loire
p3160
I4050
sVMonte Da Ravasqueira
p3161
I3212
sVVina Perez Cruz
p3162
I3213
sVTerre Dell Isola
p3163
I3406
sVFranz Wilh Langguth
p3164
I3214
sVAlain Graillot
p3165
I3215
sVDomaine De Marotte
p3166
I3216
sVVieux Chateau Certan
p3167
I3217
sVRadovanovic
p3168
I3219
sVBellosguardo
p3169
I3220
sVSogrape Vinhos
p3170
I3221
sVRevelry Vintners
p3171
I4053
sVAramis Vineyard
p3172
I3223
sVRuinart
p3173
I1476
sVFrancis Coppola
p3174
I3225
sVDomaine Heresztyn
p3175
I2172
sVTwin Brook
p3176
I3227
sVBeaulon
p3177
I3361
sVMichel Redde
p3178
I3229
sVSivipa
p3179
I3362
sVChateau Le Puy
p3180
I3231
sVVina Dona Dolores
p3181
I3232
sVMaurice Zufferey
p3182
I3233
sVSouthern Creek
p3183
I4055
sVJ. L. Quinson
p3184
I3234
sVLouis Cheze
p3185
I2404
sVMillton
p3186
I568
sVVina Real
p3187
I2625
sVJessup Cellars
p3188
I3238
sVBartholomew Park
p3189
I3239
sVVilla Sparina
p3190
I3240
sVMartinelli Estate
p3191
I2435
sVConfrerie Des Chevaliers Du Tastevin
p3192
I3242
sVWeingut Schloss Proschwitz
p3193
I3243
sVVie di Romans
p3194
I3244
sVLakeview
p3195
I3245
sVChateau La Cardonne
p3196
I3246
sVDomaine de La Mordoree
p3197
I3247
sVKonyari
p3198
I2470
sVBarricas
p3199
I3249
sVBacaro
p3200
I3250
sVAltes Schlosschen
p3201
I2485
sVQuinta do Carmo
p3202
I2487
sVChateau Tayac
p3203
I1217
sVBertrand De Tavernay
p3204
I3253
sVDaedalus
p3205
I3254
sVBalgownie Estate
p3206
I3255
sVLe Velette
p3207
I3256
sVDuck Walk Vineyards
p3208
I3257
sVChateau Grand Jour
p3209
I2522
sVXavier Weisskopf
p3210
I3259
sVPicard
p3211
I3260
sVCasaloste
p3212
I3261
sVLusenti
p3213
I3262
sVPunset
p3214
I3263
sVOld Plains
p3215
I3264
sVCourmayeur
p3216
I3265
sVVinarstvi Krist
p3217
I3266
sVBodegas Irius
p3218
I3268
sVDomaine de Vauroux
p3219
I3269
sVChateau Rayas
p3220
I4058
sVRegis De Valliere
p3221
I3271
sVChateau Monbrison
p3222
I3272
sVGuy Allion
p3223
I3368
sVVasco Sassetti
p3224
I2600
sVLionel Osmin Cie
p3225
I3275
sVVaccaro
p3226
I3276
sVCol d'Orcia
p3227
I3277
sVThe 7th Generation
p3228
I3278
sVChateau Nenin
p3229
I662
sVSuter
p3230
I3280
sVConti Costanti
p3231
I3281
sVCasisano Colombaio
p3232
I3209
sVDomaine De La Solitude
p3233
I3282
sVTierra del Fuego
p3234
I3284
sVValle De La Puerta
p3235
I3285
sVChateau Clos du Moulin
p3236
I3286
sVRosewood Estates
p3237
I3950
sVCantina Di Monteforte
p3238
I3287
sVDoffo
p3239
I4062
sVContucci
p3240
I3288
sVAvanti
p3241
I4120
sVBoheme
p3242
I3290
sVMouton
p3243
I2722
sVWild Duck Creek Estate
p3244
I2727
sVChateau Clarke
p3245
I3294
sVLamothe
p3246
I4064
sVTurner Road
p3247
I3296
sVEric Louis
p3248
I2750
sVCantine Teanum
p3249
I3298
sVKoehly
p3250
I3299
sVKangarilla Road
p3251
I2764
sVEvans &amp; Tate
p3252
I3301
sVVon Salis
p3253
I3302
sVTulbagh
p3254
I2788
sVBlason De Bourgogne
p3255
I3304
sVKenzo Estate
p3256
I4065
sVColruyt
p3257
I2828
sVChateau Haute Brande
p3258
I3308
sVVilla Creek
p3259
I1773
sVNoble Vines
p3260
I1574
sVChateau Pavie Macquin
p3261
I2845
sVBach
p3262
I3312
sVPali
p3263
I3313
sVBiohof Pratsch
p3264
I3314
sVBodegas Roqueta
p3265
I3315
sVChateau Peybonhomme Les Tours
p3266
I3316
sVStigler
p3267
I3317
sVGeyerhof
p3268
I3683
sVDomaine Chanson
p3269
I2388
sVBlack Stallion
p3270
I2801
sVJ. L. Wolf
p3271
I3319
sVSchatzel
p3272
I4197
sVTohu
p3273
I2907
sVHenri Rebourseau
p3274
I3321
sVL. Mawby
p3275
I3322
sVMiles Mossop
p3276
I3323
sVSzeremley
p3277
I2939
sVChateau Calissanne
p3278
I3325
sVHecho En Mexico
p3279
I2171
sVTrump
p3280
I1442
sVGrand Vin
p3281
I4068
sVMonte Bernardi
p3282
I3328
sVCaprili
p3283
I3329
sVFoderi Ruggeri Corsini
p3284
I2995
sVTerraVentoux
p3285
I3331
sVDieu Donne
p3286
I3332
sVTomas Cusine
p3287
I3704
sVFontanabianca
p3288
I1515
sVRamirana
p3289
I2773
sVMountain View
p3290
I3335
sVHerdade Do Mouchao
p3291
I3049
sVSole
p3292
I3337
sVRed Tail Ridge
p3293
I3338
sVSola
p3294
I3339
sVDomaine Font De Michelle
p3295
I3340
sVBodegas Bleda
p3296
I3341
sVAllan Scott
p3297
I2961
sVLenz
p3298
I3990
sVChateau Reysson
p3299
I3343
sVLatroun
p3300
I3344
sVLa Masia Bach
p3301
I4174
sVClautiere Vineyard
p3302
I3830
sVLeconfield
p3303
I1464
sVClos Du Caillou
p3304
I3347
sVDomaine Fontanel
p3305
I3348
sVSt. Julian Winery
p3306
I3349
sVMarilyn Remark
p3307
I3350
sVMonchhof Robert Eymael
p3308
I3351
sVCanoe Ridge Vineyard
p3309
I3384
sVMontebuena
p3310
I519
sVGianfranco Alessandria
p3311
I3181
sVDFJ
p3312
I1982
sVColvendra
p3313
I3357
sVAnnie et Philippe Bornard
p3314
I3358
sVPierre Ponnelle
p3315
I3359
sVAlbert Besombes
p3316
I3360
sVMasseria Pietrosa
p3317
I3228
sVAmbrogio E Giovanni Folonari
p3318
I3230
sVMoppity Vineyards
p3319
I3363
sVBodegas Campos Reales
p3320
I3365
sVToi Toi
p3321
I1969
sVRocca Di Fabbri
p3322
I3367
sVVinex Slavyantsi
p3323
I3273
sVBalnaves Of Coonawarra
p3324
I4075
sVTrione
p3325
I3371
sVSchales
p3326
I3372
sVChateau Jean de Gue
p3327
I3373
sVFrancois Arnaud
p3328
I3166
sVCiv & Civ
p3329
I3374
sVChateau Meyre
p3330
I3375
sVMas Estela
p3331
I3376
sVRamey Wine Cellars
p3332
I3378
sVAlpaca
p3333
I3379
sVMenestrello
p3334
I3380
sVTerres Dorees
p3335
I3381
sVBurrell School Vineyards
p3336
I3267
sVSolomon Hills
p3337
I3383
sVChateau la Gaffeliere
p3338
I3352
sVLa Tour Des Dames
p3339
I3385
sVMarson
p3340
I3386
sVAntiche Terre
p3341
I3364
sVAnam Cara Cellars
p3342
I3382
sVCoturri
p3343
I622
sVClos Des Papes
p3344
I3391
sVColsaliz
p3345
I3392
sVJeruzalem Ormoz
p3346
I3393
sVEagle Creek
p3347
I2126
sVCasa Da Capela
p3348
I3031
sVWilliamson
p3349
I3396
sVKossler
p3350
I2844
sVRenieri
p3351
I3099
sVGrillette
p3352
I3397
sVEcluse
p3353
I3858
sVMonchiero Carbone
p3354
I3398
sVAstros
p3355
I3399
sVBooker Vineyard
p3356
I3400
sVMaterne Haegelin
p3357
I3401
sVVinorum
p3358
I3402
sVBodegas y Vinedos del Jalon
p3359
I3403
sVCantine Florio
p3360
I3045
sVFreyburger
p3361
I3405
sVCriadores De Rioja
p3362
I3366
sVVins Des Chevaliers
p3363
I3407
sVSea Ridge
p3364
I3408
sVBischoffinger
p3365
I3409
sVBerard Pere Et Fils
p3366
I3410
sVJean Claude
p3367
I2998
sVZumot
p3368
I3412
sVLehnert Veit
p3369
I3413
sVDeep Woods Estate
p3370
I3394
sVRoagna
p3371
I3346
sVBorgo Scopeto
p3372
I3574
sVJean Milan
p3373
I1656
sVChateau le Bourdieu
p3374
I3395
sVJuniper Estate
p3375
I3416
sVQ
p3376
I3417
sVChateau Blaignan
p3377
I2474
sVSummerfield
p3378
I3419
sVCoppiere
p3379
I3420
sVSalvatore Principe
p3380
I3421
sVCantine del Notaio
p3381
I3422
sVAnita Nittnaus Hans
p3382
I3423
sVOjai Vineyard
p3383
I3424
sVStoney Creek
p3384
I3425
sVSolaguen
p3385
I727
sVCasanova
p3386
I3427
sVChateau Filhot
p3387
I3428
sVLunar
p3388
I2299
sVDomaine de La Charbonnieres
p3389
I1599
sVGiacobazzi
p3390
I1247
sVLouis Bovard
p3391
I1497
sVMonsanto
p3392
I3433
sVMayor
p3393
I4086
sVIllahe
p3394
I3435
sVChateau D'Aydie
p3395
I3436
sVCastello Di Uviglie
p3396
I2238
sVMontecappone
p3397
I3438
sVMonte Delle Vigne
p3398
I3439
sVChateau Cabezac
p3399
I4201
sVDomaine Du Vieux Lazaret
p3400
I3440
sVCascina Corte
p3401
I3988
sVChateau Coulon
p3402
I4081
sVD Aquino
p3403
I3441
sVBodega Amalaya
p3404
I3442
sVKaiser
p3405
I3443
sVChateau Chatain
p3406
I3444
sVGraceland
p3407
I2659
sVGiacomo Sperone
p3408
I3446
sVCastel Di Salve
p3409
I3447
sVRegine Zimmer
p3410
I3827
sVLuis Flipe Edwards
p3411
I3448
sVJean Paul & Benoit Droin
p3412
I3449
sVCasal Farneto
p3413
I3450
sVRobert Young Estate Winery
p3414
I3451
sVBelpoggio
p3415
I3452
sVHermann
p3416
I3453
sVElvis Presley
p3417
I3454
sVLauran Cabaret
p3418
I3455
sVCantalupo
p3419
I3456
sVIl Pozzo
p3420
I2223
sVPoggio Al Sole
p3421
I3458
sVCastelli del Grevepesa
p3422
I3459
sVFabienne Cottagnoud
p3423
I3460
sVBlack Opal
p3424
I3461
sVCecilia
p3425
I3462
sVAntonopoulos
p3426
I3300
sVThe Dreaming Tree
p3427
I3463
sVLake Chelan
p3428
I2826
sVChateau Simian
p3429
I3466
sVEmilio Lustau
p3430
I3467
sVWineHaven
p3431
I3468
sVRotllan Torra
p3432
I2970
sVRoulot
p3433
I3470
sVNumanthia
p3434
I3471
sVBernard Bonin
p3435
I3472
sVVictor Berard
p3436
I3473
sVAccordini
p3437
I3142
sVRoger Goulart
p3438
I1694
sVChateau Saint Michel
p3439
I3476
sVBrunier
p3440
I3477
sVBig Basin Vineyards
p3441
I3164
sVDomaine Rene Rostaing
p3442
I3479
sVVinkara
p3443
I3481
sVBodegas Museum Real
p3444
I3482
sVCorison
p3445
I1988
sVCantina Zaccagnini
p3446
I3484
sVDomaine Jaume
p3447
I3485
sVStephane Montez Domaine Du Monteillet
p3448
I3486
sVBodegas Lagunilla
p3449
I3718
sVCave des Vignerons du Gravillas
p3450
I3488
sVWalter Hansel
p3451
I3489
sVChateau Lamargue
p3452
I3490
sVCharles Joguet
p3453
I3491
sVAustins
p3454
I2239
sVVall De Juy
p3455
I4085
sVDomaine Giraud
p3456
I2079
sVLuccarelli
p3457
I3494
sVSolis
p3458
I3495
sVMalle
p3459
I3496
sVKeyways Vineyard
p3460
I2830
sVChateau La Clotte
p3461
I3498
sVFrutos Villar
p3462
I3499
sVBest's
p3463
I3500
sVRitterhof
p3464
I3501
sVEt Cetera
p3465
I3502
sVLa Purisima
p3466
I3503
sVBeau Vigne
p3467
I3504
sVJM Cellars
p3468
I3505
sVForest Hill Vineyard
p3469
I3506
sVFrancois Lumpp
p3470
I3507
sVJoseph Perrier
p3471
I2284
sVOld Tbilisi
p3472
I3509
sVKukkula
p3473
I4103
sVMauritson
p3474
I3511
sVDemeter
p3475
I2822
sVTenuta Di Montecucco
p3476
I3513
sVStillwaters Vineyards
p3477
I3514
sVMas Jullien
p3478
I3515
sVChateau Teyssier
p3479
I3516
sVDomaine Fichet
p3480
I3517
sVPoderi La Collina
p3481
I3326
sVSanguis
p3482
I3519
sVCasa Del Coppiere
p3483
I3520
sVChaddsford
p3484
I2880
sVJoseph De Vassadel
p3485
I3522
sVPrinz
p3486
I3523
sVMainerdo
p3487
I3524
sVLas Condes
p3488
I3525
sVMarsac Seguineau
p3489
I3526
sVMount Veeder
p3490
I3527
sVSapphire Hill
p3491
I3528
sVMontenidoli
p3492
I3529
sVSao Joao
p3493
I3530
sVSan Simone
p3494
I3531
sVBodega del Abad
p3495
I4108
sVCa Botta
p3496
I3533
sVDomaine Mur Mur Ium
p3497
I3738
sVTierra Del sol
p3498
I3534
sVTenute Gorghi Tondi
p3499
I545
sVCave St Pierre
p3500
I3536
sVCarmelo Patti
p3501
I3414
sVGut Altenberg
p3502
I20
sVJosetta Saffirio
p3503
I2363
sVElisabetta Geppetti
p3504
I3539
sVPalazzo Maffei
p3505
I3540
sVSella &amp; Mosca
p3506
I3541
sVThe Ned
p3507
I3542
sVChateau Tariquet
p3508
I3543
sVFisher Vinyards
p3509
I1800
sVTikal
p3510
I3545
sVCantine Torri
p3511
I3546
sVTaylors Port
p3512
I3547
sVGray Monk Estate
p3513
I3548
sVSerradenari
p3514
I3415
sVStone Hills
p3515
I3550
sVLong Flat
p3516
I3551
sVNuviana
p3517
I3552
sVBaily & Baily
p3518
I4130
sVCastell
p3519
I472
sVLarkmead
p3520
I3554
sVWeingut Knoll
p3521
I3555
sVBodega Putruele
p3522
I118
sVSartirano Figli
p3523
I3557
sVCoco Farm
p3524
I3558
sVCumbres Andinas
p3525
I2968
sVFontaine Gagnard
p3526
I3559
sVOlcaviana
p3527
I3560
sVCa Di Frara
p3528
I3475
sVLes Vignerons de Buzet
p3529
I3510
sVMediterra
p3530
I172
sVDerby Wine Estates
p3531
I178
sVPaolini
p3532
I3564
sVLa Louviere
p3533
I186
sVScarzello
p3534
I3566
sVSkillogalee
p3535
I201
sVHunawihr
p3536
I203
sVLost Canyon
p3537
I206
sVPalazzone
p3538
I3570
sVGeoris
p3539
I3008
sVMaysara Winery
p3540
I3572
sVTenuta Cocci Grifoni
p3541
I2026
sVA. Christmann
p3542
I247
sVValle Dell'Acate
p3543
I3575
sVBerceo
p3544
I3576
sVCatherine Marshall
p3545
I4116
sVKirrihill
p3546
I3578
sVCantina del Glicine
p3547
I2687
sVBarranco Oscuro
p3548
I3579
sVJohn Robert Eppler
p3549
I3580
sVCantine Torresella
p3550
I2834
sVSaint Sauveur
p3551
I3581
sVBeltrame
p3552
I2787
sVRed Rock Winery
p3553
I3583
sVBedrock
p3554
I3584
sVCasa Santa Luzia
p3555
I3585
sVWilli Haag
p3556
I3586
sVMadrona Vineyards
p3557
I3587
sVBouvet
p3558
I3306
sVLeopold Aumann
p3559
I3589
sVCape Point Vineyards
p3560
I3590
sVJane Ventura
p3561
I3591
sVLark Hill
p3562
I3592
sVBaron De Turis
p3563
I3593
sVLangenwalter
p3564
I372
sVMontefiori
p3565
I3595
sVShenandoah
p3566
I3596
sVChateau de Pressac
p3567
I3597
sVAlambrado
p3568
I3598
sVCalina
p3569
I3599
sVCoates
p3570
I3600
sVJ Vineyards & Winery
p3571
I257
sVNova Alianca
p3572
I3602
sVCVNE
p3573
I3603
sVAlbola
p3574
I3604
sVLoma Larga
p3575
I3605
sVLa Graviere
p3576
I1277
sVChateau Potelle
p3577
I3607
sVWilli Opitz
p3578
I3608
sVChateau Bacchus
p3579
I3609
sVTerrazas de los Andes
p3580
I3610
sVTe Awa
p3581
I2285
sVArdeche
p3582
I3426
sVAgua De Piedra
p3583
I457
sVPMC
p3584
I3614
sVDr. Heidemanns Bergweiler
p3585
I3615
sVJean & Pierre Testuz
p3586
I2902
sVStefano Lubiana
p3587
I3616
sVIl Molino Di Grace
p3588
I471
sVMichel Chapoutier
p3589
I3618
sVDomaine Anne Et Herve Sigaut
p3590
I2900
sVPietro Rinaldi
p3591
I3619
sVLa Lande
p3592
I3620
sVMarco Maci
p3593
I3621
sVNittardi
p3594
I2697
sVLa Perla Del Priorat
p3595
I3623
sVCockburn's
p3596
I521
sVCaleo
p3597
I26
sVGuido Brivio
p3598
I3626
sVGeyser peak
p3599
I538
sVTorre Fornello
p3600
I486
sVGaetano D'Aquino
p3601
I3629
sVChateau Destieux
p3602
I3630
sVReisten
p3603
I3631
sVChateau Haut Grelot
p3604
I3632
sVBellview
p3605
I3633
sVHope Estate
p3606
I3634
sVChateau Labadie
p3607
I3635
sVRamon Roqueta
p3608
I800
sVGunther Steinmetz
p3609
I587
sVChateau La Marzelle
p3610
I3429
sVDomaine Piquemal
p3611
I4093
sVMelen
p3612
I604
sVFitapreta
p3613
I2414
sVScherb
p3614
I3640
sVTomero
p3615
I630
sVCastillo Turis
p3616
I643
sVTenuta Carretta
p3617
I3643
sVNaveran
p3618
I3432
sVLeonetti Cellar
p3619
I3645
sVSattlerhof
p3620
I3191
sVTransmontanas
p3621
I674
sVGrande Provance
p3622
I3478
sVLe Clos Du Caillou
p3623
I3647
sVChateau La Croix
p3624
I3648
sVChateau de Caladroy
p3625
I3649
sVAvontuur
p3626
I3611
sVSanta Augusta
p3627
I3650
sVCastillo De Montearagon
p3628
I3651
sVJ. Oster
p3629
I2433
sVMichelangelo
p3630
I732
sVTable Mountain
p3631
I3318
sVPatterson
p3632
I3655
sVVilla Toscano
p3633
I3656
sVDomaine Girault
p3634
I3657
sVDrei Dona Tenuta la Palazza
p3635
I3658
sVSt. James
p3636
I759
sVAdam Puchta
p3637
I644
sVPaul Beaudet
p3638
I3661
sVOso Libre
p3639
I1109
sVBaco Club
p3640
I3663
sVSanto
p3641
I3664
sVChateau de Saint Cosme
p3642
I3437
sVDomaine Gros Frere Et Soeur
p3643
I3665
sVDe Toren
p3644
I3666
sVLions Peak
p3645
I3582
sVSanta Cristina
p3646
I3668
sVMoines
p3647
I3669
sVAnna Spinato
p3648
I823
sVCliffside
p3649
I3893
sVBourotte
p3650
I837
sVGross
p3651
I125
sVBodega Enrique Foster
p3652
I3404
sVTensley
p3653
I3673
sVTerrenostre
p3654
I3674
sVC.N. Kopke
p3655
I3675
sVNostros
p3656
I916
sVMarque Deposee
p3657
I3677
sVLa Rasina
p3658
I2712
sVSalitage
p3659
I3680
sVSoquel Vineyards
p3660
I3681
sVColleMassari
p3661
I4199
sVBotzinger
p3662
I3682
sVGuy Charlemagne
p3663
I1900
sVGaudio
p3664
I3684
sVCoca I Fito
p3665
I3685
sVBessa Valley
p3666
I989
sVEdmond Barnaut
p3667
I3687
sVLimerick Lane
p3668
I3722
sVYork Creek Vineyards
p3669
I3688
sVAlessandro Gallici
p3670
I3689
sVChateau Saint Ahon
p3671
I3690
sVHunter's
p3672
I4100
sVMartin Ranch
p3673
I3691
sVRoberto Anselmi
p3674
I3692
sVPhelps Creek
p3675
I3693
sVSolar Ee Urbezo
p3676
I1031
sVPredella
p3677
I3695
sVDomaine Des Varoilles
p3678
I1039
sVMiali
p3679
I3697
sVDomaine Jean Pascal & Fils
p3680
I300
sVYorkville Cellars
p3681
I3699
sVBiber
p3682
I3700
sVFranzosi
p3683
I1070
sVCummo
p3684
I2025
sVMountadam Vineyards
p3685
I2244
sVCanella
p3686
I882
sVNapier
p3687
I3601
sVQuanta Terra
p3688
I3705
sVMount Pleasant Estate
p3689
I3706
sVDomaine Pierre Usseglio & Fils
p3690
I3080
sVBaronia
p3691
I1110
sVMontemaggiore
p3692
I3445
sVJean Tardy & Fils
p3693
I1125
sVMorgenster
p3694
I3710
sVEl Castillo
p3695
I3711
sVPatrick Hudelot
p3696
I3712
sVBiondi Santi
p3697
I3713
sVDandelion
p3698
I1146
sVChateau Le Pey
p3699
I3715
sVGoose Watch
p3700
I3716
sVVergenoegd
p3701
I3717
sVDomaine Trapet Pere & Fils
p3702
I3719
sVShug
p3703
I3720
sVWeingut Krug
p3704
I3721
sVMusso
p3705
I2593
sVBodegas Ostatu
p3706
I1297
sVJerome Galeyrand
p3707
I87
sVJulien Schaal
p3708
I3725
sVDerain
p3709
I3726
sVAllini
p3710
I3483
sVReschke
p3711
I3728
sVBallentine Vineyards
p3712
I4109
sVClarence Hill
p3713
I3729
sVFerdinando Principiano
p3714
I3730
sVPrimus
p3715
I3731
sVPetrussa
p3716
I3732
sVCapitello
p3717
I3733
sVLa Cappuccina
p3718
I3734
sVSummerwood
p3719
I3735
sVKamen Estate
p3720
I3736
sVChateau Haut Breton Larigaudiere
p3721
I3737
sVPoderi Aldo Conterno
p3722
I2178
sVAbreu Vineyard
p3723
I3739
sVLa Grande
p3724
I3740
sVNaked Winery
p3725
I1301
sVDe Meye
p3726
I3742
sVFalco
p3727
I3743
sVFleury
p3728
I3744
sVLatah Creek
p3729
I378
sVQuinta Nova De Nossa Senhora Do Carmo
p3730
I1346
sVPodere Il Palazzino
p3731
I3747
sVRubin
p3732
I2873
sVAgua Dulce
p3733
I3749
sVChateau L'Arrosee
p3734
I1382
sVCuail Creek
p3735
I3751
sVRed Rooster
p3736
I3752
sVJosephine Dubois
p3737
I2058
sVMichel Laurent
p3738
I3754
sVSchuchmann
p3739
I3755
sVTenuta Pule
p3740
I3756
sVTunquelen
p3741
I3757
sVKlosterhof
p3742
I3758
sVPiero Busso
p3743
I3759
sVLe Ginestre
p3744
I1435
sVLa Casona
p3745
I3761
sVCambria Estate Winery
p3746
I3762
sVChateau du Cedre
p3747
I3763
sVTesch
p3748
I3764
sVChateau De Cabriac
p3749
I3765
sVChateau Jean Faure
p3750
I3766
sVCarl & Fils
p3751
I3767
sVSanta Monica
p3752
I3768
sVBosquet Des Papes
p3753
I3769
sVPassion
p3754
I3770
sVTscharke
p3755
I1507
sVVincent Pinard
p3756
I2884
sVLinganore Winecellars
p3757
I1524
sVCrasto
p3758
I1536
sVDomaine Seppi Landmann
p3759
I3774
sVPasquale Pelissero
p3760
I3775
sVArchery Summit
p3761
I3179
sVNanni
p3762
I3777
sVDomaine Tollot Beaut
p3763
I1562
sVBodegas Alejandro Fernandez
p3764
I2685
sVMadonna Estate
p3765
I567
sVRonco Del Gelso
p3766
I3781
sVLa Braccesca
p3767
I3782
sVVincente Gandia
p3768
I2644
sVEhlers Estate
p3769
I3784
sVBixio
p3770
I3785
sVValle Real
p3771
I1544
sVMichel Mallard
p3772
I3787
sVGaillard
p3773
I1433
sVGhislaine Barthod
p3774
I3789
sVKumeu River
p3775
I1625
sVCellier des Templiers
p3776
I3791
sVFranz Reh
p3777
I3792
sVGiaconda
p3778
I3793
sVCosters Del Priorat
p3779
I2040
sVNiersteiner
p3780
I1607
sVDans
p3781
I3218
sVChateau le Grand Verdus
p3782
I3797
sVNeiss
p3783
I3798
sVViviani
p3784
I3799
sVCantina del Grifone
p3785
I3800
sVSylvain Loichet
p3786
I2696
sVLucky Duck
p3787
I3802
sVIntipalka
p3788
I3803
sVHawley
p3789
I3804
sVCederberg
p3790
I3805
sVGallician
p3791
I1267
sVWindowrie
p3792
I3807
sVGeoff Merril
p3793
I3808
sVEra
p3794
I2409
sVZema Estate
p3795
I3809
sVRemelluri
p3796
I3810
sVLariviere Yturbe
p3797
I3811
sVThe Winery At La Grange
p3798
I1771
sVH. Lun
p3799
I3813
sVGravner
p3800
I1780
sVAdega de Vila Real
p3801
I3815
sVAlto Estate
p3802
I3027
sVCavas Hill
p3803
I3817
sVGilles Louvet
p3804
I3818
sVIona
p3805
I1022
sVJones Of Washington
p3806
I1244
sVCranswick
p3807
I3822
sVJean Remy Haeffelin
p3808
I2959
sVLake Chalice
p3809
I3824
sVGlenora Wine Cellars
p3810
I3825
sVLa Marquesa
p3811
I3826
sVJoseph Cartron
p3812
I2046
sVClos Figueres
p3813
I3703
sVFeudi Del Pisciotto
p3814
I3464
sVDominican Oaks
p3815
I3829
sVDeltetto
p3816
I1863
sVDomaine De La Motte
p3817
I3831
sVFavia
p3818
I3832
sVChateau Couhins
p3819
I3833
sVEugene Klipfel
p3820
I3834
sVDa Luca
p3821
I3835
sVRosenthal
p3822
I3836
sVChateau Gigognan
p3823
I3388
sVJuliana Wieder
p3824
I2735
sVVinattieri Ticinesi
p3825
I3839
sVFinca Allende
p3826
I3840
sVLa Sirena
p3827
I3841
sVLes Terrasses d'Eole
p3828
I3842
sVTaverna
p3829
I2842
sVCasalino
p3830
I3843
sVLa Corte
p3831
I3144
sVVignoble Chabrier
p3832
I4158
sVCave La Romaine
p3833
I3844
sVChateau Rollan de By
p3834
I3845
sVHayman & Hill
p3835
I3846
sVTerrapura
p3836
I3847
sVRivesaltais
p3837
I3848
sVFamiglia Cielo
p3838
I3849
sVBackhouse
p3839
I3850
sVFrancois Lipp
p3840
I1802
sVChateau Pontet Chappaz
p3841
I3852
sVRoques
p3842
I2843
sVSavia Viva
p3843
I3854
sVPassopisciaro
p3844
I3855
sVMendel
p3845
I3856
sVSarahs
p3846
I3857
sVD Orschwiller
p3847
I606
sVHaak
p3848
I3030
sVKWV Cathedral Cellar
p3849
I3859
sVHaut Brion
p3850
I2039
sVPassionate Wine
p3851
I3861
sVEagles' Nest
p3852
I3862
sVChateau Haut Marbuzet
p3853
I3863
sVD'Oliveiras
p3854
I2064
sVMontezuma
p3855
I2067
sVSaint Paul
p3856
I3867
sVChateau Grand Corbin
p3857
I825
sVSilver Mountain
p3858
I3869
sVLindenhof
p3859
I2084
sVWellington
p3860
I3871
sVCastillo Labastida
p3861
I3872
sVBechereau
p3862
I3873
sVPascal Clement
p3863
I665
sVBodegas Alto Moncayo
p3864
I3875
sVCastro Ventosa
p3865
I4162
sVArista
p3866
I3877
sVLeelanau Cellars
p3867
I3878
sVRio Seco
p3868
I3879
sVBodegas Malaga Virgen
p3869
I3880
sVSan Giusto A Rentennano
p3870
I2147
sVFantelli
p3871
I3882
sVDomaine Rene Monnier
p3872
I3474
sVRinaldi
p3873
I3884
sVBarenhof
p3874
I3885
sVTopolcianky
p3875
I3886
sVBelle Pente
p3876
I3887
sVMonte Faustino
p3877
I3888
sVCayuse Vineyards
p3878
I2168
sVChateau La Baronne
p3879
I3163
sVCave Des Lilas
p3880
I2054
sVMaurizio B Martino
p3881
I3891
sVFamilia Eguren
p3882
I3892
sVLe Clos du Caillou
p3883
I590
sVChateau Preuillac
p3884
I3894
sVDomaine Gerovasseliou
p3885
I3895
sVJ.M. Monmousseau
p3886
I3896
sVLa Tour
p3887
I3897
sVHamelin Bay
p3888
I3898
sVFontaleoni
p3889
I3899
sVBollinger
p3890
I3900
sVBadgers Creek
p3891
I3901
sVIsenhower Cellars
p3892
I245
sVFontanella
p3893
I3903
sVGiacomo Marengo
p3894
I3904
sVArrington
p3895
I2326
sVLuigi Voghera
p3896
I3905
sVClaudio Mariotto
p3897
I3906
sVCumulus
p3898
I3907
sVGoldwater
p3899
I3908
sVParaduxx
p3900
I3909
sVEstandon
p3901
I3910
sVPaul Masson
p3902
I3911
sVMegalomaniac
p3903
I3912
sVSan Fabiano Calcinaia
p3904
I3913
sVZanoni
p3905
I3914
sVFrench Paradox
p3906
I3915
sVCastello Sonnino
p3907
I2347
sVMeszaros Pal
p3908
I3918
sVKonigsbach Neustadt
p3909
I3919
sVCaparone
p3910
I3920
sVGallegas
p3911
I2369
sVMcPherson Cellars
p3912
I3746
sVClean Skins
p3913
I3923
sVChurchill's
p3914
I617
sVPrimo Estate
p3915
I3021
sVStaffelter Hof
p3916
I4094
sVCan Rafols dels Caus
p3917
I1334
sVLaVelle
p3918
I2406
sVClos Fournet
p3919
I3928
sVOverhex Wines International
p3920
I4040
sVGardet
p3921
I1478
sVThe Wine Selection
p3922
I3930
sVKallfelz
p3923
I3931
sVLa Fornace
p3924
I3932
sVDomaine de Beaurenard
p3925
I2459
sVHomewood
p3926
I3934
sVAlain Chabanon
p3927
I3935
sVdi Lenardo
p3928
I3936
sVChateau La Grace Dieu
p3929
I3937
sVOrsolani
p3930
I2062
sVAlbert Seltz
p3931
I3939
sVChampagne Pierre Gimonnet & Fils
p3932
I3940
sVPanzanello
p3933
I3941
sVPonte Uomini E Vigne
p3934
I3942
sVLoma Prieta Winery
p3935
I3943
sVChateau La Fleur Petrus
p3936
I2896
sVMerriam Vineyards
p3937
I3945
sVGarvey
p3938
I3196
sVLandes
p3939
I4173
sVSchlossadler
p3940
I3948
sVGormaz
p3941
I2541
sVBorgo Cipressi
p3942
I2520
sVIby
p3943
I3951
sVCastillo De Anna
p3944
I3952
sVAmisfield
p3945
I3953
sVGranadeiro
p3946
I3954
sVChateau Marquis de Terme
p3947
I2570
sVCorteforte
p3948
I3956
sVKaena
p3949
I3957
sVChateau Grand Corbin Despagne
p3950
I3958
sVFurstenfass
p3951
I2587
sVDi Marco
p3952
I3960
sVCave Du Sarment
p3953
I3961
sVVolpi
p3954
I2756
sVEifel Pfeiffer
p3955
I3962
sVSakonnet
p3956
I3963
sVChateau Grand Moulin
p3957
I3964
sVBehrens & Hitchcock
p3958
I3965
sVBond Estates
p3959
I3966
sVMarcelo Miras
p3960
I2645
sVBarth Rene
p3961
I3968
sVRebenhof
p3962
I3969
sVFeotto Dello Jato
p3963
I2676
sVAltocedro
p3964
I287
sVCarhartt Vineyard
p3965
I3972
sVConsorzio Vini Tipici Di San Marino
p3966
I3973
sVLoimer
p3967
I2705
sVCarlos Serres
p3968
I3307
sVFox Valley
p3969
I3492
sVBaglio Di Pianetto
p3970
I3976
sVChateau Hauterive
p3971
I3977
sVDomaine Andre Perret
p3972
I3978
sVCave De Bissey
p3973
I3561
sVGuffens Heynen
p3974
I2744
sVMas De La Dame
p3975
I3981
sVTamber Bey
p3976
I2775
sVMonterinaldi
p3977
I3983
sVAstrolabe
p3978
I3984
sVDurnberg
p3979
I2786
sVClement Klur
p3980
I3986
sVLionel Raymond
p3981
I3987
sVHermes
p3982
I2821
sVAmadeus
p3983
I2202
sVJean Claude Belland
p3984
I3991
sVDalwhinnie
p3985
I3992
sVPrunier
p3986
I4184
sVLes Grands Bois
p3987
I1347
sVMadrigal
p3988
I3995
sVPago De Los Capellanes
p3989
I3996
sVHeringer
p3990
I2881
sVCoelho
p3991
I2887
sVCepa 21
p3992
I3999
sVFattoria Zerbina
p3993
I1364
sVFinca Munoz
p3994
I3654
sVPra
p3995
I3497
sVFlametree
p3996
I4001
sVSol Rouge
p3997
I4002
sVTerra D Alter
p3998
I4003
sVGrangehurst
p3999
I2888
sVGirardet
p4000
I4005
sVBorie De Maurel
p4001
I4006
sVDomaine de Fontsainte
p4002
I4007
sVMaison Arnoux Pere & Fils
p4003
I2958
sVOlvena
p4004
I2964
sVOberrotweiler
p4005
I2977
sVGelfand Vineyards
p4006
I4011
sVGalena Cellars
p4007
I4012
sVMonkey Bay
p4008
I4013
sVChateau Val Joanis
p4009
I2989
sVEchelon
p4010
I4015
sVCosta Al Sole
p4011
I4016
sVBenessere
p4012
I4017
sVRuby Hill Winery
p4013
I3018
sVVJB Vineyards & Cellars
p4014
I4019
sVSolorca
p4015
I3480
sVCesare Salvadori
p4016
I4021
sVDomanie Des Tourelles
p4017
I4022
sVLouis Chevallier
p4018
I4023
sVChateau Reynon
p4019
I4024
sVAdriano Marco E Vittorio
p4020
I4025
sVChateau Villerambert Julien
p4021
I4026
sVHoopenburg
p4022
I4027
sVChasse Spleen
p4023
I4028
sVDao Sul
p4024
I3078
sVFranz Leth
p4025
I4030
sVSheridan Vineyard
p4026
I4032
sVValdorella
p4027
I4033
sVLioco
p4028
I4034
sVWhite Hall
p4029
I4035
sVAimestentz
p4030
I3102
sVMas Alta
p4031
I4037
sVMme Aly Duhr & Fils
p4032
I2140
sVSchiopetto
p4033
I4038
sVCa Bianca
p4034
I4175
sVCristom
p4035
I4187
sVRideau Vineyard
p4036
I3143
sVUleybury
p4037
I4190
sVArbor Crest
p4038
I1594
sVDomaine Michel Gros
p4039
I4042
sVDourthe Freres
p4040
I4191
sVCastero
p4041
I4044
sVCambas
p4042
I4045
sVRoche Mzaet
p4043
I4046
sVMonte Maria
p4044
I4047
sVLes Celliers Des Terres De France
p4045
I3203
sVBodegas Osborne
p4046
I1618
sVChateau Cadillac
p4047
I3211
sVDomaine des Chanssaud
p4048
I4051
sVIsenbourg
p4049
I4052
sVDomaine Labet
p4050
I1728
sVPaolo Manzone
p4051
I4054
sVAnima
p4052
I2642
sVBarros
p4053
I4056
sVAntica Corte
p4054
I4057
sVRocca Di Montemassi
p4055
I3270
sVMarco Real
p4056
I927
sVTruchard
p4057
I4060
sVWilliams selyem
p4058
I4061
sVQuinta Nova
p4059
I2560
sVAyuso
p4060
I4063
sVRonco Delle Betulle
p4061
I3295
sVGran Sasso
p4062
I3305
sVSanta Catarina
p4063
I3311
sVAborigen
p4064
I2779
sVFermasa
p4065
I2087
sVErnst Bretz
p4066
I3327
sVCastellare di Castellina
p4067
I4069
sVAbbadia Ardenga
p4068
I4070
sVFabrice Gasnier
p4069
I4071
sVJoseph Swan Vineyards
p4070
I4072
sVAdega Cooperative
p4071
I4073
sVRoda
p4072
I3369
sVLeopards Leap
p4073
I4076
sVDomaine Vincent Paris
p4074
I4077
sVKynsi
p4075
I3390
sVRiviere
p4076
I4079
sVCapercaillie
p4077
I4080
sVKonrad
p4078
I1936
sVChateau Griviere
p4079
I4082
sVAvantis
p4080
I858
sVDomaine Servin
p4081
I4200
sVSommer
p4082
I207
sVLauri Viana
p4083
I3434
sVWillow Creek Vineyard
p4084
I4087
sVVal De Los Frailes
p4085
I4088
sVGamache Vintners
p4086
I1971
sVMathieu
p4087
I1566
sVRamey
p4088
I4090
sVHauck
p4089
I4091
sVChateau de Sales
p4090
I4092
sVDorgali
p4091
I1366
sVPrimitivo Quiles
p4092
I2931
sVTobia
p4093
I4095
sVKaiserstuhl
p4094
I4096
sVGhizzano
p4095
I4097
sVBodegas Santo Domingo
p4096
I4098
sVGramenon
p4097
I2378
sVThree Rivers Winery
p4098
I3310
sVMartinolles
p4099
I4101
sVAndrew McPherson
p4100
I4102
sVChateau Mourgues Du Gres
p4101
I2785
sVLinda Donna
p4102
I4105
sVMoorilla Estate
p4103
I4106
sVLudger Veit
p4104
I4107
sVJacques Tissot
p4105
I3532
sVSeeger
p4106
I577
sVVaucher Pere &amp; Fils
p4107
I4110
sVNova Wines
p4108
I4111
sVCantine Povero
p4109
I4112
sVKacaba
p4110
I4113
sVThe Williamsburg
p4111
I4114
sVLeitner
p4112
I3565
sVZenaida Cellars
p4113
I3577
sVEvans Tate
p4114
I3624
sVAdirondack
p4115
I4118
sVBracamonte
p4116
I4119
sVLeroy Chevalier
p4117
I332
sVAbadia Mantrus
p4118
I4121
sVVillaggio Grando
p4119
I4123
sVCampos de Cima
p4120
I4124
sVd'Autrefois
p4121
I4125
sVFelix Rocha
p4122
I4126
sVGroth
p4123
I4127
sVAudelssa
p4124
I4128
sVRene Monnier
p4125
I856
sVApostelhoeve
p4126
I4041
sVFailla
p4127
I3279
sVDei
p4128
I3679
sVRijk's
p4129
I4133
sVChateau Suau
p4130
I3916
sVCalais Estate
p4131
I4135
sVSalcheto
p4132
I2792
sVOndalan
p4133
I4136
sVBodgeas Los Frailes
p4134
I3646
sVTange Gerard
p4135
I3708
sVDel Rio Vineyards
p4136
I4138
sVQuinta De Alcube
p4137
I4139
sVRombauer
p4138
I4140
sVIgnaz Niedrist
p4139
I3022
sVChateau Le Crock
p4140
I4141
sVOlivier Merlin
p4141
I4142
sVRubicone Estate
p4142
I4143
sVAntiyal
p4143
I4144
sVLes Domaines Paul Mas
p4144
I3745
sVDauvergne et Ranvier
p4145
I4146
sVRusden
p4146
I3137
sVLa Ferme Du Mont
p4147
I4147
sVLa Jara
p4148
I4148
sVNeumeister
p4149
I4149
sVLo Zoccolaio
p4150
I4150
sVGrands Chais De Saint Laurent
p4151
I2090
sVScacciadiavoli
p4152
I4152
sVHerdade Do Peso
p4153
I3521
sVSasso Dei Lupi
p4154
I4155
sVVinedo de los Vientos
p4155
I4156
sVCastelo De Medina
p4156
I4157
sVSeavey Vineyard
p4157
I3122
sVStaatliche Weinbaudomane
p4158
I4159
sVVilla Mattielli
p4159
I3922
sVCapanna
p4160
I4160
sVShottesbrooke
p4161
I4161
sVRockbridge
p4162
I3876
sVSiegbert Bimmerle
p4163
I4163
sVBeaux Freres
p4164
I4164
sVLatcham Vineyards
p4165
I4165
sVVillanyi
p4166
I4166
sVDel Vero
p4167
I2781
sVKarma Vista
p4168
I4169
sVSmall Gully
p4169
I3549
sVDonini
p4170
I4171
sVClos De Gat
p4171
I4172
sVCasteltorre
p4172
I3947
sVPalumbo Family
p4173
I305
sVAlfred Rothschild
p4174
I578
sVGuilbaud Freres
p4175
I4167
sVPaternoster
p4176
I3644
sVCru
p4177
I3377
sVEugene Reullier
p4178
I4179
sVTaillevent
p4179
I2708
sVGerard Neumeyer
p4180
I4181
sVGorgo
p4181
I3985
sVTantara
p4182
I2913
sVCalistoga Cellars
p4183
I3993
sVMakana
p4184
I4185
sVStoney Ridge
p4185
I4186
sVHop Kiln
p4186
I3588
sVNada Fiorenzo
p4187
I4189
sVCasa De Santar
p4188
I3342
sVPaoletti
p4189
I4043
sVMonchiero
p4190
I4192
sVPeter Jakob Kuhn
p4191
I4193
sVChateau Mont Perat
p4192
I4194
sVBoscaini
p4193
I4195
sVSan Filippo
p4194
I4196
sVChateau Vartely
p4195
I4074
sVAzienda Agricola
p4196
I4198
sVSaddleback cellars
p4197
I3975
sVPago De Carrovejas
p4198
I4084
sVRivero Gonzalez
p4199
I3353
sVSenorio De Villarrica
p4200
I2912
sVLe Cuvier
p4201
I4203
sVBommarito
p4202
I4204
sV13th Street Winery
p4203
I4205
sVLavina
p4204
I4206
sVFamiglia Zonin
p4205
I2254
sVFortnum &amp; Mason
p4206
I4207
sVCabert
p4207
I4208
sVNelson
p4208
I4000
sVFrentana
p4209
I4168
sVGrey Stack
p4210
I947
sVDomodimonti
p4211
I4129
sVWoodenhead
p4212
I4211
sVLa Rame
p4213
I4212
sVBrochelle Vineyards
p4214
I2083
sVChateau Doisy Vedrines
p4215
I4214
sVMontebello
p4216
I1250
sVGiuseppe Campagnola
p4217
I4216
sVWollersheim Winery
p4218
I4217
s.